
eta322.elf:     file format elf32-avr

Sections:
Idx Name          Size      VMA       LMA       File off  Algn
  0 .text         0000385c  00000000  00000000  00000094  2**1
                  CONTENTS, ALLOC, LOAD, READONLY, CODE
  1 .data         00000168  00800060  0000385c  000038f0  2**0
                  CONTENTS, ALLOC, LOAD, DATA
  2 .bss          00000006  008001c8  008001c8  00003a58  2**0
                  ALLOC
  3 .stab         00002e38  00000000  00000000  00003a58  2**2
                  CONTENTS, READONLY, DEBUGGING
  4 .stabstr      00001325  00000000  00000000  00006890  2**0
                  CONTENTS, READONLY, DEBUGGING
  5 .debug_aranges 00000180  00000000  00000000  00007bb5  2**0
                  CONTENTS, READONLY, DEBUGGING
  6 .debug_pubnames 000001d1  00000000  00000000  00007d35  2**0
                  CONTENTS, READONLY, DEBUGGING
  7 .debug_info   00002010  00000000  00000000  00007f06  2**0
                  CONTENTS, READONLY, DEBUGGING
  8 .debug_abbrev 00001161  00000000  00000000  00009f16  2**0
                  CONTENTS, READONLY, DEBUGGING
  9 .debug_line   00001003  00000000  00000000  0000b077  2**0
                  CONTENTS, READONLY, DEBUGGING
 10 .debug_frame  000001a0  00000000  00000000  0000c07c  2**2
                  CONTENTS, READONLY, DEBUGGING
 11 .debug_str    000002be  00000000  00000000  0000c21c  2**0
                  CONTENTS, READONLY, DEBUGGING
 12 .debug_loc    0000090e  00000000  00000000  0000c4da  2**0
                  CONTENTS, READONLY, DEBUGGING
 13 .debug_ranges 00000050  00000000  00000000  0000cde8  2**0
                  CONTENTS, READONLY, DEBUGGING

Disassembly of section .text:

00000000 <__vectors>:
       0:	0c 94 2a 00 	jmp	0x54	; 0x54 <__ctors_end>
       4:	0c 94 47 00 	jmp	0x8e	; 0x8e <__bad_interrupt>
       8:	0c 94 47 00 	jmp	0x8e	; 0x8e <__bad_interrupt>
       c:	0c 94 47 00 	jmp	0x8e	; 0x8e <__bad_interrupt>
      10:	0c 94 47 00 	jmp	0x8e	; 0x8e <__bad_interrupt>
      14:	0c 94 47 00 	jmp	0x8e	; 0x8e <__bad_interrupt>
      18:	0c 94 47 00 	jmp	0x8e	; 0x8e <__bad_interrupt>
      1c:	0c 94 47 00 	jmp	0x8e	; 0x8e <__bad_interrupt>
      20:	0c 94 47 00 	jmp	0x8e	; 0x8e <__bad_interrupt>
      24:	0c 94 47 00 	jmp	0x8e	; 0x8e <__bad_interrupt>
      28:	0c 94 47 00 	jmp	0x8e	; 0x8e <__bad_interrupt>
      2c:	0c 94 47 00 	jmp	0x8e	; 0x8e <__bad_interrupt>
      30:	0c 94 47 00 	jmp	0x8e	; 0x8e <__bad_interrupt>
      34:	0c 94 3d 17 	jmp	0x2e7a	; 0x2e7a <__vector_13>
      38:	0c 94 47 00 	jmp	0x8e	; 0x8e <__bad_interrupt>
      3c:	0c 94 70 17 	jmp	0x2ee0	; 0x2ee0 <__vector_15>
      40:	0c 94 47 00 	jmp	0x8e	; 0x8e <__bad_interrupt>
      44:	0c 94 47 00 	jmp	0x8e	; 0x8e <__bad_interrupt>
      48:	0c 94 47 00 	jmp	0x8e	; 0x8e <__bad_interrupt>
      4c:	0c 94 47 00 	jmp	0x8e	; 0x8e <__bad_interrupt>
      50:	0c 94 47 00 	jmp	0x8e	; 0x8e <__bad_interrupt>

00000054 <__ctors_end>:
      54:	11 24       	eor	r1, r1
      56:	1f be       	out	0x3f, r1	; 63
      58:	cf e5       	ldi	r28, 0x5F	; 95
      5a:	d8 e0       	ldi	r29, 0x08	; 8
      5c:	de bf       	out	0x3e, r29	; 62
      5e:	cd bf       	out	0x3d, r28	; 61

00000060 <__do_copy_data>:
      60:	11 e0       	ldi	r17, 0x01	; 1
      62:	a0 e6       	ldi	r26, 0x60	; 96
      64:	b0 e0       	ldi	r27, 0x00	; 0
      66:	ec e5       	ldi	r30, 0x5C	; 92
      68:	f8 e3       	ldi	r31, 0x38	; 56
      6a:	02 c0       	rjmp	.+4      	; 0x70 <.do_copy_data_start>

0000006c <.do_copy_data_loop>:
      6c:	05 90       	lpm	r0, Z+
      6e:	0d 92       	st	X+, r0

00000070 <.do_copy_data_start>:
      70:	a8 3c       	cpi	r26, 0xC8	; 200
      72:	b1 07       	cpc	r27, r17
      74:	d9 f7       	brne	.-10     	; 0x6c <.do_copy_data_loop>

00000076 <__do_clear_bss>:
      76:	11 e0       	ldi	r17, 0x01	; 1
      78:	a8 ec       	ldi	r26, 0xC8	; 200
      7a:	b1 e0       	ldi	r27, 0x01	; 1
      7c:	01 c0       	rjmp	.+2      	; 0x80 <.do_clear_bss_start>

0000007e <.do_clear_bss_loop>:
      7e:	1d 92       	st	X+, r1

00000080 <.do_clear_bss_start>:
      80:	ae 3c       	cpi	r26, 0xCE	; 206
      82:	b1 07       	cpc	r27, r17
      84:	e1 f7       	brne	.-8      	; 0x7e <.do_clear_bss_loop>
      86:	0e 94 a3 17 	call	0x2f46	; 0x2f46 <main>
      8a:	0c 94 2c 1c 	jmp	0x3858	; 0x3858 <_exit>

0000008e <__bad_interrupt>:
      8e:	0c 94 00 00 	jmp	0	; 0x0 <__vectors>

00000092 <__fixunssfsi>:
      92:	ef 92       	push	r14
      94:	ff 92       	push	r15
      96:	0f 93       	push	r16
      98:	1f 93       	push	r17
      9a:	7b 01       	movw	r14, r22
      9c:	8c 01       	movw	r16, r24
      9e:	20 e0       	ldi	r18, 0x00	; 0
      a0:	30 e0       	ldi	r19, 0x00	; 0
      a2:	40 e0       	ldi	r20, 0x00	; 0
      a4:	5f e4       	ldi	r21, 0x4F	; 79
      a6:	0e 94 49 03 	call	0x692	; 0x692 <__gesf2>
      aa:	88 23       	and	r24, r24
      ac:	8c f0       	brlt	.+34     	; 0xd0 <__fixunssfsi+0x3e>
      ae:	c8 01       	movw	r24, r16
      b0:	b7 01       	movw	r22, r14
      b2:	20 e0       	ldi	r18, 0x00	; 0
      b4:	30 e0       	ldi	r19, 0x00	; 0
      b6:	40 e0       	ldi	r20, 0x00	; 0
      b8:	5f e4       	ldi	r21, 0x4F	; 79
      ba:	0e 94 c1 01 	call	0x382	; 0x382 <__subsf3>
      be:	0e 94 07 04 	call	0x80e	; 0x80e <__fixsfsi>
      c2:	9b 01       	movw	r18, r22
      c4:	ac 01       	movw	r20, r24
      c6:	20 50       	subi	r18, 0x00	; 0
      c8:	30 40       	sbci	r19, 0x00	; 0
      ca:	40 40       	sbci	r20, 0x00	; 0
      cc:	50 48       	sbci	r21, 0x80	; 128
      ce:	06 c0       	rjmp	.+12     	; 0xdc <__fixunssfsi+0x4a>
      d0:	c8 01       	movw	r24, r16
      d2:	b7 01       	movw	r22, r14
      d4:	0e 94 07 04 	call	0x80e	; 0x80e <__fixsfsi>
      d8:	9b 01       	movw	r18, r22
      da:	ac 01       	movw	r20, r24
      dc:	b9 01       	movw	r22, r18
      de:	ca 01       	movw	r24, r20
      e0:	1f 91       	pop	r17
      e2:	0f 91       	pop	r16
      e4:	ff 90       	pop	r15
      e6:	ef 90       	pop	r14
      e8:	08 95       	ret

000000ea <_fpadd_parts>:
      ea:	a0 e0       	ldi	r26, 0x00	; 0
      ec:	b0 e0       	ldi	r27, 0x00	; 0
      ee:	eb e7       	ldi	r30, 0x7B	; 123
      f0:	f0 e0       	ldi	r31, 0x00	; 0
      f2:	0c 94 54 19 	jmp	0x32a8	; 0x32a8 <__prologue_saves__>
      f6:	dc 01       	movw	r26, r24
      f8:	2b 01       	movw	r4, r22
      fa:	fa 01       	movw	r30, r20
      fc:	9c 91       	ld	r25, X
      fe:	92 30       	cpi	r25, 0x02	; 2
     100:	08 f4       	brcc	.+2      	; 0x104 <_fpadd_parts+0x1a>
     102:	39 c1       	rjmp	.+626    	; 0x376 <_fpadd_parts+0x28c>
     104:	eb 01       	movw	r28, r22
     106:	88 81       	ld	r24, Y
     108:	82 30       	cpi	r24, 0x02	; 2
     10a:	08 f4       	brcc	.+2      	; 0x10e <_fpadd_parts+0x24>
     10c:	33 c1       	rjmp	.+614    	; 0x374 <_fpadd_parts+0x28a>
     10e:	94 30       	cpi	r25, 0x04	; 4
     110:	69 f4       	brne	.+26     	; 0x12c <_fpadd_parts+0x42>
     112:	84 30       	cpi	r24, 0x04	; 4
     114:	09 f0       	breq	.+2      	; 0x118 <_fpadd_parts+0x2e>
     116:	2f c1       	rjmp	.+606    	; 0x376 <_fpadd_parts+0x28c>
     118:	11 96       	adiw	r26, 0x01	; 1
     11a:	9c 91       	ld	r25, X
     11c:	11 97       	sbiw	r26, 0x01	; 1
     11e:	89 81       	ldd	r24, Y+1	; 0x01
     120:	98 17       	cp	r25, r24
     122:	09 f4       	brne	.+2      	; 0x126 <_fpadd_parts+0x3c>
     124:	28 c1       	rjmp	.+592    	; 0x376 <_fpadd_parts+0x28c>
     126:	a8 e9       	ldi	r26, 0x98	; 152
     128:	b0 e0       	ldi	r27, 0x00	; 0
     12a:	25 c1       	rjmp	.+586    	; 0x376 <_fpadd_parts+0x28c>
     12c:	84 30       	cpi	r24, 0x04	; 4
     12e:	09 f4       	brne	.+2      	; 0x132 <_fpadd_parts+0x48>
     130:	21 c1       	rjmp	.+578    	; 0x374 <_fpadd_parts+0x28a>
     132:	82 30       	cpi	r24, 0x02	; 2
     134:	a9 f4       	brne	.+42     	; 0x160 <_fpadd_parts+0x76>
     136:	92 30       	cpi	r25, 0x02	; 2
     138:	09 f0       	breq	.+2      	; 0x13c <_fpadd_parts+0x52>
     13a:	1d c1       	rjmp	.+570    	; 0x376 <_fpadd_parts+0x28c>
     13c:	9a 01       	movw	r18, r20
     13e:	ad 01       	movw	r20, r26
     140:	88 e0       	ldi	r24, 0x08	; 8
     142:	ea 01       	movw	r28, r20
     144:	09 90       	ld	r0, Y+
     146:	ae 01       	movw	r20, r28
     148:	e9 01       	movw	r28, r18
     14a:	09 92       	st	Y+, r0
     14c:	9e 01       	movw	r18, r28
     14e:	81 50       	subi	r24, 0x01	; 1
     150:	c1 f7       	brne	.-16     	; 0x142 <_fpadd_parts+0x58>
     152:	e2 01       	movw	r28, r4
     154:	89 81       	ldd	r24, Y+1	; 0x01
     156:	11 96       	adiw	r26, 0x01	; 1
     158:	9c 91       	ld	r25, X
     15a:	89 23       	and	r24, r25
     15c:	81 83       	std	Z+1, r24	; 0x01
     15e:	08 c1       	rjmp	.+528    	; 0x370 <_fpadd_parts+0x286>
     160:	92 30       	cpi	r25, 0x02	; 2
     162:	09 f4       	brne	.+2      	; 0x166 <_fpadd_parts+0x7c>
     164:	07 c1       	rjmp	.+526    	; 0x374 <_fpadd_parts+0x28a>
     166:	12 96       	adiw	r26, 0x02	; 2
     168:	2d 90       	ld	r2, X+
     16a:	3c 90       	ld	r3, X
     16c:	13 97       	sbiw	r26, 0x03	; 3
     16e:	eb 01       	movw	r28, r22
     170:	8a 81       	ldd	r24, Y+2	; 0x02
     172:	9b 81       	ldd	r25, Y+3	; 0x03
     174:	14 96       	adiw	r26, 0x04	; 4
     176:	ad 90       	ld	r10, X+
     178:	bd 90       	ld	r11, X+
     17a:	cd 90       	ld	r12, X+
     17c:	dc 90       	ld	r13, X
     17e:	17 97       	sbiw	r26, 0x07	; 7
     180:	ec 80       	ldd	r14, Y+4	; 0x04
     182:	fd 80       	ldd	r15, Y+5	; 0x05
     184:	0e 81       	ldd	r16, Y+6	; 0x06
     186:	1f 81       	ldd	r17, Y+7	; 0x07
     188:	91 01       	movw	r18, r2
     18a:	28 1b       	sub	r18, r24
     18c:	39 0b       	sbc	r19, r25
     18e:	b9 01       	movw	r22, r18
     190:	37 ff       	sbrs	r19, 7
     192:	04 c0       	rjmp	.+8      	; 0x19c <_fpadd_parts+0xb2>
     194:	66 27       	eor	r22, r22
     196:	77 27       	eor	r23, r23
     198:	62 1b       	sub	r22, r18
     19a:	73 0b       	sbc	r23, r19
     19c:	60 32       	cpi	r22, 0x20	; 32
     19e:	71 05       	cpc	r23, r1
     1a0:	0c f0       	brlt	.+2      	; 0x1a4 <_fpadd_parts+0xba>
     1a2:	61 c0       	rjmp	.+194    	; 0x266 <_fpadd_parts+0x17c>
     1a4:	12 16       	cp	r1, r18
     1a6:	13 06       	cpc	r1, r19
     1a8:	6c f5       	brge	.+90     	; 0x204 <_fpadd_parts+0x11a>
     1aa:	37 01       	movw	r6, r14
     1ac:	48 01       	movw	r8, r16
     1ae:	06 2e       	mov	r0, r22
     1b0:	04 c0       	rjmp	.+8      	; 0x1ba <_fpadd_parts+0xd0>
     1b2:	96 94       	lsr	r9
     1b4:	87 94       	ror	r8
     1b6:	77 94       	ror	r7
     1b8:	67 94       	ror	r6
     1ba:	0a 94       	dec	r0
     1bc:	d2 f7       	brpl	.-12     	; 0x1b2 <_fpadd_parts+0xc8>
     1be:	21 e0       	ldi	r18, 0x01	; 1
     1c0:	30 e0       	ldi	r19, 0x00	; 0
     1c2:	40 e0       	ldi	r20, 0x00	; 0
     1c4:	50 e0       	ldi	r21, 0x00	; 0
     1c6:	04 c0       	rjmp	.+8      	; 0x1d0 <_fpadd_parts+0xe6>
     1c8:	22 0f       	add	r18, r18
     1ca:	33 1f       	adc	r19, r19
     1cc:	44 1f       	adc	r20, r20
     1ce:	55 1f       	adc	r21, r21
     1d0:	6a 95       	dec	r22
     1d2:	d2 f7       	brpl	.-12     	; 0x1c8 <_fpadd_parts+0xde>
     1d4:	21 50       	subi	r18, 0x01	; 1
     1d6:	30 40       	sbci	r19, 0x00	; 0
     1d8:	40 40       	sbci	r20, 0x00	; 0
     1da:	50 40       	sbci	r21, 0x00	; 0
     1dc:	2e 21       	and	r18, r14
     1de:	3f 21       	and	r19, r15
     1e0:	40 23       	and	r20, r16
     1e2:	51 23       	and	r21, r17
     1e4:	21 15       	cp	r18, r1
     1e6:	31 05       	cpc	r19, r1
     1e8:	41 05       	cpc	r20, r1
     1ea:	51 05       	cpc	r21, r1
     1ec:	21 f0       	breq	.+8      	; 0x1f6 <_fpadd_parts+0x10c>
     1ee:	21 e0       	ldi	r18, 0x01	; 1
     1f0:	30 e0       	ldi	r19, 0x00	; 0
     1f2:	40 e0       	ldi	r20, 0x00	; 0
     1f4:	50 e0       	ldi	r21, 0x00	; 0
     1f6:	79 01       	movw	r14, r18
     1f8:	8a 01       	movw	r16, r20
     1fa:	e6 28       	or	r14, r6
     1fc:	f7 28       	or	r15, r7
     1fe:	08 29       	or	r16, r8
     200:	19 29       	or	r17, r9
     202:	3c c0       	rjmp	.+120    	; 0x27c <_fpadd_parts+0x192>
     204:	23 2b       	or	r18, r19
     206:	d1 f1       	breq	.+116    	; 0x27c <_fpadd_parts+0x192>
     208:	26 0e       	add	r2, r22
     20a:	37 1e       	adc	r3, r23
     20c:	35 01       	movw	r6, r10
     20e:	46 01       	movw	r8, r12
     210:	06 2e       	mov	r0, r22
     212:	04 c0       	rjmp	.+8      	; 0x21c <_fpadd_parts+0x132>
     214:	96 94       	lsr	r9
     216:	87 94       	ror	r8
     218:	77 94       	ror	r7
     21a:	67 94       	ror	r6
     21c:	0a 94       	dec	r0
     21e:	d2 f7       	brpl	.-12     	; 0x214 <_fpadd_parts+0x12a>
     220:	21 e0       	ldi	r18, 0x01	; 1
     222:	30 e0       	ldi	r19, 0x00	; 0
     224:	40 e0       	ldi	r20, 0x00	; 0
     226:	50 e0       	ldi	r21, 0x00	; 0
     228:	04 c0       	rjmp	.+8      	; 0x232 <_fpadd_parts+0x148>
     22a:	22 0f       	add	r18, r18
     22c:	33 1f       	adc	r19, r19
     22e:	44 1f       	adc	r20, r20
     230:	55 1f       	adc	r21, r21
     232:	6a 95       	dec	r22
     234:	d2 f7       	brpl	.-12     	; 0x22a <_fpadd_parts+0x140>
     236:	21 50       	subi	r18, 0x01	; 1
     238:	30 40       	sbci	r19, 0x00	; 0
     23a:	40 40       	sbci	r20, 0x00	; 0
     23c:	50 40       	sbci	r21, 0x00	; 0
     23e:	2a 21       	and	r18, r10
     240:	3b 21       	and	r19, r11
     242:	4c 21       	and	r20, r12
     244:	5d 21       	and	r21, r13
     246:	21 15       	cp	r18, r1
     248:	31 05       	cpc	r19, r1
     24a:	41 05       	cpc	r20, r1
     24c:	51 05       	cpc	r21, r1
     24e:	21 f0       	breq	.+8      	; 0x258 <_fpadd_parts+0x16e>
     250:	21 e0       	ldi	r18, 0x01	; 1
     252:	30 e0       	ldi	r19, 0x00	; 0
     254:	40 e0       	ldi	r20, 0x00	; 0
     256:	50 e0       	ldi	r21, 0x00	; 0
     258:	59 01       	movw	r10, r18
     25a:	6a 01       	movw	r12, r20
     25c:	a6 28       	or	r10, r6
     25e:	b7 28       	or	r11, r7
     260:	c8 28       	or	r12, r8
     262:	d9 28       	or	r13, r9
     264:	0b c0       	rjmp	.+22     	; 0x27c <_fpadd_parts+0x192>
     266:	82 15       	cp	r24, r2
     268:	93 05       	cpc	r25, r3
     26a:	2c f0       	brlt	.+10     	; 0x276 <_fpadd_parts+0x18c>
     26c:	1c 01       	movw	r2, r24
     26e:	aa 24       	eor	r10, r10
     270:	bb 24       	eor	r11, r11
     272:	65 01       	movw	r12, r10
     274:	03 c0       	rjmp	.+6      	; 0x27c <_fpadd_parts+0x192>
     276:	ee 24       	eor	r14, r14
     278:	ff 24       	eor	r15, r15
     27a:	87 01       	movw	r16, r14
     27c:	11 96       	adiw	r26, 0x01	; 1
     27e:	9c 91       	ld	r25, X
     280:	d2 01       	movw	r26, r4
     282:	11 96       	adiw	r26, 0x01	; 1
     284:	8c 91       	ld	r24, X
     286:	98 17       	cp	r25, r24
     288:	09 f4       	brne	.+2      	; 0x28c <_fpadd_parts+0x1a2>
     28a:	45 c0       	rjmp	.+138    	; 0x316 <_fpadd_parts+0x22c>
     28c:	99 23       	and	r25, r25
     28e:	39 f0       	breq	.+14     	; 0x29e <_fpadd_parts+0x1b4>
     290:	a8 01       	movw	r20, r16
     292:	97 01       	movw	r18, r14
     294:	2a 19       	sub	r18, r10
     296:	3b 09       	sbc	r19, r11
     298:	4c 09       	sbc	r20, r12
     29a:	5d 09       	sbc	r21, r13
     29c:	06 c0       	rjmp	.+12     	; 0x2aa <_fpadd_parts+0x1c0>
     29e:	a6 01       	movw	r20, r12
     2a0:	95 01       	movw	r18, r10
     2a2:	2e 19       	sub	r18, r14
     2a4:	3f 09       	sbc	r19, r15
     2a6:	40 0b       	sbc	r20, r16
     2a8:	51 0b       	sbc	r21, r17
     2aa:	57 fd       	sbrc	r21, 7
     2ac:	08 c0       	rjmp	.+16     	; 0x2be <_fpadd_parts+0x1d4>
     2ae:	11 82       	std	Z+1, r1	; 0x01
     2b0:	33 82       	std	Z+3, r3	; 0x03
     2b2:	22 82       	std	Z+2, r2	; 0x02
     2b4:	24 83       	std	Z+4, r18	; 0x04
     2b6:	35 83       	std	Z+5, r19	; 0x05
     2b8:	46 83       	std	Z+6, r20	; 0x06
     2ba:	57 83       	std	Z+7, r21	; 0x07
     2bc:	1d c0       	rjmp	.+58     	; 0x2f8 <_fpadd_parts+0x20e>
     2be:	81 e0       	ldi	r24, 0x01	; 1
     2c0:	81 83       	std	Z+1, r24	; 0x01
     2c2:	33 82       	std	Z+3, r3	; 0x03
     2c4:	22 82       	std	Z+2, r2	; 0x02
     2c6:	88 27       	eor	r24, r24
     2c8:	99 27       	eor	r25, r25
     2ca:	dc 01       	movw	r26, r24
     2cc:	82 1b       	sub	r24, r18
     2ce:	93 0b       	sbc	r25, r19
     2d0:	a4 0b       	sbc	r26, r20
     2d2:	b5 0b       	sbc	r27, r21
     2d4:	84 83       	std	Z+4, r24	; 0x04
     2d6:	95 83       	std	Z+5, r25	; 0x05
     2d8:	a6 83       	std	Z+6, r26	; 0x06
     2da:	b7 83       	std	Z+7, r27	; 0x07
     2dc:	0d c0       	rjmp	.+26     	; 0x2f8 <_fpadd_parts+0x20e>
     2de:	22 0f       	add	r18, r18
     2e0:	33 1f       	adc	r19, r19
     2e2:	44 1f       	adc	r20, r20
     2e4:	55 1f       	adc	r21, r21
     2e6:	24 83       	std	Z+4, r18	; 0x04
     2e8:	35 83       	std	Z+5, r19	; 0x05
     2ea:	46 83       	std	Z+6, r20	; 0x06
     2ec:	57 83       	std	Z+7, r21	; 0x07
     2ee:	82 81       	ldd	r24, Z+2	; 0x02
     2f0:	93 81       	ldd	r25, Z+3	; 0x03
     2f2:	01 97       	sbiw	r24, 0x01	; 1
     2f4:	93 83       	std	Z+3, r25	; 0x03
     2f6:	82 83       	std	Z+2, r24	; 0x02
     2f8:	24 81       	ldd	r18, Z+4	; 0x04
     2fa:	35 81       	ldd	r19, Z+5	; 0x05
     2fc:	46 81       	ldd	r20, Z+6	; 0x06
     2fe:	57 81       	ldd	r21, Z+7	; 0x07
     300:	da 01       	movw	r26, r20
     302:	c9 01       	movw	r24, r18
     304:	01 97       	sbiw	r24, 0x01	; 1
     306:	a1 09       	sbc	r26, r1
     308:	b1 09       	sbc	r27, r1
     30a:	8f 5f       	subi	r24, 0xFF	; 255
     30c:	9f 4f       	sbci	r25, 0xFF	; 255
     30e:	af 4f       	sbci	r26, 0xFF	; 255
     310:	bf 43       	sbci	r27, 0x3F	; 63
     312:	28 f3       	brcs	.-54     	; 0x2de <_fpadd_parts+0x1f4>
     314:	0b c0       	rjmp	.+22     	; 0x32c <_fpadd_parts+0x242>
     316:	91 83       	std	Z+1, r25	; 0x01
     318:	33 82       	std	Z+3, r3	; 0x03
     31a:	22 82       	std	Z+2, r2	; 0x02
     31c:	ea 0c       	add	r14, r10
     31e:	fb 1c       	adc	r15, r11
     320:	0c 1d       	adc	r16, r12
     322:	1d 1d       	adc	r17, r13
     324:	e4 82       	std	Z+4, r14	; 0x04
     326:	f5 82       	std	Z+5, r15	; 0x05
     328:	06 83       	std	Z+6, r16	; 0x06
     32a:	17 83       	std	Z+7, r17	; 0x07
     32c:	83 e0       	ldi	r24, 0x03	; 3
     32e:	80 83       	st	Z, r24
     330:	24 81       	ldd	r18, Z+4	; 0x04
     332:	35 81       	ldd	r19, Z+5	; 0x05
     334:	46 81       	ldd	r20, Z+6	; 0x06
     336:	57 81       	ldd	r21, Z+7	; 0x07
     338:	57 ff       	sbrs	r21, 7
     33a:	1a c0       	rjmp	.+52     	; 0x370 <_fpadd_parts+0x286>
     33c:	c9 01       	movw	r24, r18
     33e:	aa 27       	eor	r26, r26
     340:	97 fd       	sbrc	r25, 7
     342:	a0 95       	com	r26
     344:	ba 2f       	mov	r27, r26
     346:	81 70       	andi	r24, 0x01	; 1
     348:	90 70       	andi	r25, 0x00	; 0
     34a:	a0 70       	andi	r26, 0x00	; 0
     34c:	b0 70       	andi	r27, 0x00	; 0
     34e:	56 95       	lsr	r21
     350:	47 95       	ror	r20
     352:	37 95       	ror	r19
     354:	27 95       	ror	r18
     356:	82 2b       	or	r24, r18
     358:	93 2b       	or	r25, r19
     35a:	a4 2b       	or	r26, r20
     35c:	b5 2b       	or	r27, r21
     35e:	84 83       	std	Z+4, r24	; 0x04
     360:	95 83       	std	Z+5, r25	; 0x05
     362:	a6 83       	std	Z+6, r26	; 0x06
     364:	b7 83       	std	Z+7, r27	; 0x07
     366:	82 81       	ldd	r24, Z+2	; 0x02
     368:	93 81       	ldd	r25, Z+3	; 0x03
     36a:	01 96       	adiw	r24, 0x01	; 1
     36c:	93 83       	std	Z+3, r25	; 0x03
     36e:	82 83       	std	Z+2, r24	; 0x02
     370:	df 01       	movw	r26, r30
     372:	01 c0       	rjmp	.+2      	; 0x376 <_fpadd_parts+0x28c>
     374:	d2 01       	movw	r26, r4
     376:	cd 01       	movw	r24, r26
     378:	cd b7       	in	r28, 0x3d	; 61
     37a:	de b7       	in	r29, 0x3e	; 62
     37c:	e2 e1       	ldi	r30, 0x12	; 18
     37e:	0c 94 70 19 	jmp	0x32e0	; 0x32e0 <__epilogue_restores__>

00000382 <__subsf3>:
     382:	a0 e2       	ldi	r26, 0x20	; 32
     384:	b0 e0       	ldi	r27, 0x00	; 0
     386:	e7 ec       	ldi	r30, 0xC7	; 199
     388:	f1 e0       	ldi	r31, 0x01	; 1
     38a:	0c 94 60 19 	jmp	0x32c0	; 0x32c0 <__prologue_saves__+0x18>
     38e:	69 83       	std	Y+1, r22	; 0x01
     390:	7a 83       	std	Y+2, r23	; 0x02
     392:	8b 83       	std	Y+3, r24	; 0x03
     394:	9c 83       	std	Y+4, r25	; 0x04
     396:	2d 83       	std	Y+5, r18	; 0x05
     398:	3e 83       	std	Y+6, r19	; 0x06
     39a:	4f 83       	std	Y+7, r20	; 0x07
     39c:	58 87       	std	Y+8, r21	; 0x08
     39e:	e9 e0       	ldi	r30, 0x09	; 9
     3a0:	ee 2e       	mov	r14, r30
     3a2:	f1 2c       	mov	r15, r1
     3a4:	ec 0e       	add	r14, r28
     3a6:	fd 1e       	adc	r15, r29
     3a8:	ce 01       	movw	r24, r28
     3aa:	01 96       	adiw	r24, 0x01	; 1
     3ac:	b7 01       	movw	r22, r14
     3ae:	0e 94 7f 05 	call	0xafe	; 0xafe <__unpack_f>
     3b2:	8e 01       	movw	r16, r28
     3b4:	0f 5e       	subi	r16, 0xEF	; 239
     3b6:	1f 4f       	sbci	r17, 0xFF	; 255
     3b8:	ce 01       	movw	r24, r28
     3ba:	05 96       	adiw	r24, 0x05	; 5
     3bc:	b8 01       	movw	r22, r16
     3be:	0e 94 7f 05 	call	0xafe	; 0xafe <__unpack_f>
     3c2:	8a 89       	ldd	r24, Y+18	; 0x12
     3c4:	91 e0       	ldi	r25, 0x01	; 1
     3c6:	89 27       	eor	r24, r25
     3c8:	8a 8b       	std	Y+18, r24	; 0x12
     3ca:	c7 01       	movw	r24, r14
     3cc:	b8 01       	movw	r22, r16
     3ce:	ae 01       	movw	r20, r28
     3d0:	47 5e       	subi	r20, 0xE7	; 231
     3d2:	5f 4f       	sbci	r21, 0xFF	; 255
     3d4:	0e 94 75 00 	call	0xea	; 0xea <_fpadd_parts>
     3d8:	0e 94 aa 04 	call	0x954	; 0x954 <__pack_f>
     3dc:	a0 96       	adiw	r28, 0x20	; 32
     3de:	e6 e0       	ldi	r30, 0x06	; 6
     3e0:	0c 94 7c 19 	jmp	0x32f8	; 0x32f8 <__epilogue_restores__+0x18>

000003e4 <__addsf3>:
     3e4:	a0 e2       	ldi	r26, 0x20	; 32
     3e6:	b0 e0       	ldi	r27, 0x00	; 0
     3e8:	e8 ef       	ldi	r30, 0xF8	; 248
     3ea:	f1 e0       	ldi	r31, 0x01	; 1
     3ec:	0c 94 60 19 	jmp	0x32c0	; 0x32c0 <__prologue_saves__+0x18>
     3f0:	69 83       	std	Y+1, r22	; 0x01
     3f2:	7a 83       	std	Y+2, r23	; 0x02
     3f4:	8b 83       	std	Y+3, r24	; 0x03
     3f6:	9c 83       	std	Y+4, r25	; 0x04
     3f8:	2d 83       	std	Y+5, r18	; 0x05
     3fa:	3e 83       	std	Y+6, r19	; 0x06
     3fc:	4f 83       	std	Y+7, r20	; 0x07
     3fe:	58 87       	std	Y+8, r21	; 0x08
     400:	f9 e0       	ldi	r31, 0x09	; 9
     402:	ef 2e       	mov	r14, r31
     404:	f1 2c       	mov	r15, r1
     406:	ec 0e       	add	r14, r28
     408:	fd 1e       	adc	r15, r29
     40a:	ce 01       	movw	r24, r28
     40c:	01 96       	adiw	r24, 0x01	; 1
     40e:	b7 01       	movw	r22, r14
     410:	0e 94 7f 05 	call	0xafe	; 0xafe <__unpack_f>
     414:	8e 01       	movw	r16, r28
     416:	0f 5e       	subi	r16, 0xEF	; 239
     418:	1f 4f       	sbci	r17, 0xFF	; 255
     41a:	ce 01       	movw	r24, r28
     41c:	05 96       	adiw	r24, 0x05	; 5
     41e:	b8 01       	movw	r22, r16
     420:	0e 94 7f 05 	call	0xafe	; 0xafe <__unpack_f>
     424:	c7 01       	movw	r24, r14
     426:	b8 01       	movw	r22, r16
     428:	ae 01       	movw	r20, r28
     42a:	47 5e       	subi	r20, 0xE7	; 231
     42c:	5f 4f       	sbci	r21, 0xFF	; 255
     42e:	0e 94 75 00 	call	0xea	; 0xea <_fpadd_parts>
     432:	0e 94 aa 04 	call	0x954	; 0x954 <__pack_f>
     436:	a0 96       	adiw	r28, 0x20	; 32
     438:	e6 e0       	ldi	r30, 0x06	; 6
     43a:	0c 94 7c 19 	jmp	0x32f8	; 0x32f8 <__epilogue_restores__+0x18>

0000043e <__mulsf3>:
     43e:	a0 e2       	ldi	r26, 0x20	; 32
     440:	b0 e0       	ldi	r27, 0x00	; 0
     442:	e5 e2       	ldi	r30, 0x25	; 37
     444:	f2 e0       	ldi	r31, 0x02	; 2
     446:	0c 94 54 19 	jmp	0x32a8	; 0x32a8 <__prologue_saves__>
     44a:	69 83       	std	Y+1, r22	; 0x01
     44c:	7a 83       	std	Y+2, r23	; 0x02
     44e:	8b 83       	std	Y+3, r24	; 0x03
     450:	9c 83       	std	Y+4, r25	; 0x04
     452:	2d 83       	std	Y+5, r18	; 0x05
     454:	3e 83       	std	Y+6, r19	; 0x06
     456:	4f 83       	std	Y+7, r20	; 0x07
     458:	58 87       	std	Y+8, r21	; 0x08
     45a:	ce 01       	movw	r24, r28
     45c:	01 96       	adiw	r24, 0x01	; 1
     45e:	be 01       	movw	r22, r28
     460:	67 5f       	subi	r22, 0xF7	; 247
     462:	7f 4f       	sbci	r23, 0xFF	; 255
     464:	0e 94 7f 05 	call	0xafe	; 0xafe <__unpack_f>
     468:	ce 01       	movw	r24, r28
     46a:	05 96       	adiw	r24, 0x05	; 5
     46c:	be 01       	movw	r22, r28
     46e:	6f 5e       	subi	r22, 0xEF	; 239
     470:	7f 4f       	sbci	r23, 0xFF	; 255
     472:	0e 94 7f 05 	call	0xafe	; 0xafe <__unpack_f>
     476:	99 85       	ldd	r25, Y+9	; 0x09
     478:	92 30       	cpi	r25, 0x02	; 2
     47a:	88 f0       	brcs	.+34     	; 0x49e <__mulsf3+0x60>
     47c:	89 89       	ldd	r24, Y+17	; 0x11
     47e:	82 30       	cpi	r24, 0x02	; 2
     480:	c8 f0       	brcs	.+50     	; 0x4b4 <__mulsf3+0x76>
     482:	94 30       	cpi	r25, 0x04	; 4
     484:	19 f4       	brne	.+6      	; 0x48c <__mulsf3+0x4e>
     486:	82 30       	cpi	r24, 0x02	; 2
     488:	51 f4       	brne	.+20     	; 0x49e <__mulsf3+0x60>
     48a:	04 c0       	rjmp	.+8      	; 0x494 <__mulsf3+0x56>
     48c:	84 30       	cpi	r24, 0x04	; 4
     48e:	29 f4       	brne	.+10     	; 0x49a <__mulsf3+0x5c>
     490:	92 30       	cpi	r25, 0x02	; 2
     492:	81 f4       	brne	.+32     	; 0x4b4 <__mulsf3+0x76>
     494:	88 e9       	ldi	r24, 0x98	; 152
     496:	90 e0       	ldi	r25, 0x00	; 0
     498:	c6 c0       	rjmp	.+396    	; 0x626 <__mulsf3+0x1e8>
     49a:	92 30       	cpi	r25, 0x02	; 2
     49c:	49 f4       	brne	.+18     	; 0x4b0 <__mulsf3+0x72>
     49e:	20 e0       	ldi	r18, 0x00	; 0
     4a0:	9a 85       	ldd	r25, Y+10	; 0x0a
     4a2:	8a 89       	ldd	r24, Y+18	; 0x12
     4a4:	98 13       	cpse	r25, r24
     4a6:	21 e0       	ldi	r18, 0x01	; 1
     4a8:	2a 87       	std	Y+10, r18	; 0x0a
     4aa:	ce 01       	movw	r24, r28
     4ac:	09 96       	adiw	r24, 0x09	; 9
     4ae:	bb c0       	rjmp	.+374    	; 0x626 <__mulsf3+0x1e8>
     4b0:	82 30       	cpi	r24, 0x02	; 2
     4b2:	49 f4       	brne	.+18     	; 0x4c6 <__mulsf3+0x88>
     4b4:	20 e0       	ldi	r18, 0x00	; 0
     4b6:	9a 85       	ldd	r25, Y+10	; 0x0a
     4b8:	8a 89       	ldd	r24, Y+18	; 0x12
     4ba:	98 13       	cpse	r25, r24
     4bc:	21 e0       	ldi	r18, 0x01	; 1
     4be:	2a 8b       	std	Y+18, r18	; 0x12
     4c0:	ce 01       	movw	r24, r28
     4c2:	41 96       	adiw	r24, 0x11	; 17
     4c4:	b0 c0       	rjmp	.+352    	; 0x626 <__mulsf3+0x1e8>
     4c6:	2d 84       	ldd	r2, Y+13	; 0x0d
     4c8:	3e 84       	ldd	r3, Y+14	; 0x0e
     4ca:	4f 84       	ldd	r4, Y+15	; 0x0f
     4cc:	58 88       	ldd	r5, Y+16	; 0x10
     4ce:	6d 88       	ldd	r6, Y+21	; 0x15
     4d0:	7e 88       	ldd	r7, Y+22	; 0x16
     4d2:	8f 88       	ldd	r8, Y+23	; 0x17
     4d4:	98 8c       	ldd	r9, Y+24	; 0x18
     4d6:	ee 24       	eor	r14, r14
     4d8:	ff 24       	eor	r15, r15
     4da:	87 01       	movw	r16, r14
     4dc:	aa 24       	eor	r10, r10
     4de:	bb 24       	eor	r11, r11
     4e0:	65 01       	movw	r12, r10
     4e2:	40 e0       	ldi	r20, 0x00	; 0
     4e4:	50 e0       	ldi	r21, 0x00	; 0
     4e6:	60 e0       	ldi	r22, 0x00	; 0
     4e8:	70 e0       	ldi	r23, 0x00	; 0
     4ea:	e0 e0       	ldi	r30, 0x00	; 0
     4ec:	f0 e0       	ldi	r31, 0x00	; 0
     4ee:	c1 01       	movw	r24, r2
     4f0:	81 70       	andi	r24, 0x01	; 1
     4f2:	90 70       	andi	r25, 0x00	; 0
     4f4:	89 2b       	or	r24, r25
     4f6:	e9 f0       	breq	.+58     	; 0x532 <__mulsf3+0xf4>
     4f8:	e6 0c       	add	r14, r6
     4fa:	f7 1c       	adc	r15, r7
     4fc:	08 1d       	adc	r16, r8
     4fe:	19 1d       	adc	r17, r9
     500:	9a 01       	movw	r18, r20
     502:	ab 01       	movw	r20, r22
     504:	2a 0d       	add	r18, r10
     506:	3b 1d       	adc	r19, r11
     508:	4c 1d       	adc	r20, r12
     50a:	5d 1d       	adc	r21, r13
     50c:	80 e0       	ldi	r24, 0x00	; 0
     50e:	90 e0       	ldi	r25, 0x00	; 0
     510:	a0 e0       	ldi	r26, 0x00	; 0
     512:	b0 e0       	ldi	r27, 0x00	; 0
     514:	e6 14       	cp	r14, r6
     516:	f7 04       	cpc	r15, r7
     518:	08 05       	cpc	r16, r8
     51a:	19 05       	cpc	r17, r9
     51c:	20 f4       	brcc	.+8      	; 0x526 <__mulsf3+0xe8>
     51e:	81 e0       	ldi	r24, 0x01	; 1
     520:	90 e0       	ldi	r25, 0x00	; 0
     522:	a0 e0       	ldi	r26, 0x00	; 0
     524:	b0 e0       	ldi	r27, 0x00	; 0
     526:	ba 01       	movw	r22, r20
     528:	a9 01       	movw	r20, r18
     52a:	48 0f       	add	r20, r24
     52c:	59 1f       	adc	r21, r25
     52e:	6a 1f       	adc	r22, r26
     530:	7b 1f       	adc	r23, r27
     532:	aa 0c       	add	r10, r10
     534:	bb 1c       	adc	r11, r11
     536:	cc 1c       	adc	r12, r12
     538:	dd 1c       	adc	r13, r13
     53a:	97 fe       	sbrs	r9, 7
     53c:	08 c0       	rjmp	.+16     	; 0x54e <__mulsf3+0x110>
     53e:	81 e0       	ldi	r24, 0x01	; 1
     540:	90 e0       	ldi	r25, 0x00	; 0
     542:	a0 e0       	ldi	r26, 0x00	; 0
     544:	b0 e0       	ldi	r27, 0x00	; 0
     546:	a8 2a       	or	r10, r24
     548:	b9 2a       	or	r11, r25
     54a:	ca 2a       	or	r12, r26
     54c:	db 2a       	or	r13, r27
     54e:	31 96       	adiw	r30, 0x01	; 1
     550:	e0 32       	cpi	r30, 0x20	; 32
     552:	f1 05       	cpc	r31, r1
     554:	49 f0       	breq	.+18     	; 0x568 <__mulsf3+0x12a>
     556:	66 0c       	add	r6, r6
     558:	77 1c       	adc	r7, r7
     55a:	88 1c       	adc	r8, r8
     55c:	99 1c       	adc	r9, r9
     55e:	56 94       	lsr	r5
     560:	47 94       	ror	r4
     562:	37 94       	ror	r3
     564:	27 94       	ror	r2
     566:	c3 cf       	rjmp	.-122    	; 0x4ee <__mulsf3+0xb0>
     568:	fa 85       	ldd	r31, Y+10	; 0x0a
     56a:	ea 89       	ldd	r30, Y+18	; 0x12
     56c:	2b 89       	ldd	r18, Y+19	; 0x13
     56e:	3c 89       	ldd	r19, Y+20	; 0x14
     570:	8b 85       	ldd	r24, Y+11	; 0x0b
     572:	9c 85       	ldd	r25, Y+12	; 0x0c
     574:	28 0f       	add	r18, r24
     576:	39 1f       	adc	r19, r25
     578:	2e 5f       	subi	r18, 0xFE	; 254
     57a:	3f 4f       	sbci	r19, 0xFF	; 255
     57c:	17 c0       	rjmp	.+46     	; 0x5ac <__mulsf3+0x16e>
     57e:	ca 01       	movw	r24, r20
     580:	81 70       	andi	r24, 0x01	; 1
     582:	90 70       	andi	r25, 0x00	; 0
     584:	89 2b       	or	r24, r25
     586:	61 f0       	breq	.+24     	; 0x5a0 <__mulsf3+0x162>
     588:	16 95       	lsr	r17
     58a:	07 95       	ror	r16
     58c:	f7 94       	ror	r15
     58e:	e7 94       	ror	r14
     590:	80 e0       	ldi	r24, 0x00	; 0
     592:	90 e0       	ldi	r25, 0x00	; 0
     594:	a0 e0       	ldi	r26, 0x00	; 0
     596:	b0 e8       	ldi	r27, 0x80	; 128
     598:	e8 2a       	or	r14, r24
     59a:	f9 2a       	or	r15, r25
     59c:	0a 2b       	or	r16, r26
     59e:	1b 2b       	or	r17, r27
     5a0:	76 95       	lsr	r23
     5a2:	67 95       	ror	r22
     5a4:	57 95       	ror	r21
     5a6:	47 95       	ror	r20
     5a8:	2f 5f       	subi	r18, 0xFF	; 255
     5aa:	3f 4f       	sbci	r19, 0xFF	; 255
     5ac:	77 fd       	sbrc	r23, 7
     5ae:	e7 cf       	rjmp	.-50     	; 0x57e <__mulsf3+0x140>
     5b0:	0c c0       	rjmp	.+24     	; 0x5ca <__mulsf3+0x18c>
     5b2:	44 0f       	add	r20, r20
     5b4:	55 1f       	adc	r21, r21
     5b6:	66 1f       	adc	r22, r22
     5b8:	77 1f       	adc	r23, r23
     5ba:	17 fd       	sbrc	r17, 7
     5bc:	41 60       	ori	r20, 0x01	; 1
     5be:	ee 0c       	add	r14, r14
     5c0:	ff 1c       	adc	r15, r15
     5c2:	00 1f       	adc	r16, r16
     5c4:	11 1f       	adc	r17, r17
     5c6:	21 50       	subi	r18, 0x01	; 1
     5c8:	30 40       	sbci	r19, 0x00	; 0
     5ca:	40 30       	cpi	r20, 0x00	; 0
     5cc:	90 e0       	ldi	r25, 0x00	; 0
     5ce:	59 07       	cpc	r21, r25
     5d0:	90 e0       	ldi	r25, 0x00	; 0
     5d2:	69 07       	cpc	r22, r25
     5d4:	90 e4       	ldi	r25, 0x40	; 64
     5d6:	79 07       	cpc	r23, r25
     5d8:	60 f3       	brcs	.-40     	; 0x5b2 <__mulsf3+0x174>
     5da:	2b 8f       	std	Y+27, r18	; 0x1b
     5dc:	3c 8f       	std	Y+28, r19	; 0x1c
     5de:	db 01       	movw	r26, r22
     5e0:	ca 01       	movw	r24, r20
     5e2:	8f 77       	andi	r24, 0x7F	; 127
     5e4:	90 70       	andi	r25, 0x00	; 0
     5e6:	a0 70       	andi	r26, 0x00	; 0
     5e8:	b0 70       	andi	r27, 0x00	; 0
     5ea:	80 34       	cpi	r24, 0x40	; 64
     5ec:	91 05       	cpc	r25, r1
     5ee:	a1 05       	cpc	r26, r1
     5f0:	b1 05       	cpc	r27, r1
     5f2:	61 f4       	brne	.+24     	; 0x60c <__mulsf3+0x1ce>
     5f4:	47 fd       	sbrc	r20, 7
     5f6:	0a c0       	rjmp	.+20     	; 0x60c <__mulsf3+0x1ce>
     5f8:	e1 14       	cp	r14, r1
     5fa:	f1 04       	cpc	r15, r1
     5fc:	01 05       	cpc	r16, r1
     5fe:	11 05       	cpc	r17, r1
     600:	29 f0       	breq	.+10     	; 0x60c <__mulsf3+0x1ce>
     602:	40 5c       	subi	r20, 0xC0	; 192
     604:	5f 4f       	sbci	r21, 0xFF	; 255
     606:	6f 4f       	sbci	r22, 0xFF	; 255
     608:	7f 4f       	sbci	r23, 0xFF	; 255
     60a:	40 78       	andi	r20, 0x80	; 128
     60c:	1a 8e       	std	Y+26, r1	; 0x1a
     60e:	fe 17       	cp	r31, r30
     610:	11 f0       	breq	.+4      	; 0x616 <__mulsf3+0x1d8>
     612:	81 e0       	ldi	r24, 0x01	; 1
     614:	8a 8f       	std	Y+26, r24	; 0x1a
     616:	4d 8f       	std	Y+29, r20	; 0x1d
     618:	5e 8f       	std	Y+30, r21	; 0x1e
     61a:	6f 8f       	std	Y+31, r22	; 0x1f
     61c:	78 a3       	std	Y+32, r23	; 0x20
     61e:	83 e0       	ldi	r24, 0x03	; 3
     620:	89 8f       	std	Y+25, r24	; 0x19
     622:	ce 01       	movw	r24, r28
     624:	49 96       	adiw	r24, 0x19	; 25
     626:	0e 94 aa 04 	call	0x954	; 0x954 <__pack_f>
     62a:	a0 96       	adiw	r28, 0x20	; 32
     62c:	e2 e1       	ldi	r30, 0x12	; 18
     62e:	0c 94 70 19 	jmp	0x32e0	; 0x32e0 <__epilogue_restores__>

00000632 <__gtsf2>:
     632:	a8 e1       	ldi	r26, 0x18	; 24
     634:	b0 e0       	ldi	r27, 0x00	; 0
     636:	ef e1       	ldi	r30, 0x1F	; 31
     638:	f3 e0       	ldi	r31, 0x03	; 3
     63a:	0c 94 60 19 	jmp	0x32c0	; 0x32c0 <__prologue_saves__+0x18>
     63e:	69 83       	std	Y+1, r22	; 0x01
     640:	7a 83       	std	Y+2, r23	; 0x02
     642:	8b 83       	std	Y+3, r24	; 0x03
     644:	9c 83       	std	Y+4, r25	; 0x04
     646:	2d 83       	std	Y+5, r18	; 0x05
     648:	3e 83       	std	Y+6, r19	; 0x06
     64a:	4f 83       	std	Y+7, r20	; 0x07
     64c:	58 87       	std	Y+8, r21	; 0x08
     64e:	89 e0       	ldi	r24, 0x09	; 9
     650:	e8 2e       	mov	r14, r24
     652:	f1 2c       	mov	r15, r1
     654:	ec 0e       	add	r14, r28
     656:	fd 1e       	adc	r15, r29
     658:	ce 01       	movw	r24, r28
     65a:	01 96       	adiw	r24, 0x01	; 1
     65c:	b7 01       	movw	r22, r14
     65e:	0e 94 7f 05 	call	0xafe	; 0xafe <__unpack_f>
     662:	8e 01       	movw	r16, r28
     664:	0f 5e       	subi	r16, 0xEF	; 239
     666:	1f 4f       	sbci	r17, 0xFF	; 255
     668:	ce 01       	movw	r24, r28
     66a:	05 96       	adiw	r24, 0x05	; 5
     66c:	b8 01       	movw	r22, r16
     66e:	0e 94 7f 05 	call	0xafe	; 0xafe <__unpack_f>
     672:	89 85       	ldd	r24, Y+9	; 0x09
     674:	82 30       	cpi	r24, 0x02	; 2
     676:	40 f0       	brcs	.+16     	; 0x688 <__gtsf2+0x56>
     678:	89 89       	ldd	r24, Y+17	; 0x11
     67a:	82 30       	cpi	r24, 0x02	; 2
     67c:	28 f0       	brcs	.+10     	; 0x688 <__gtsf2+0x56>
     67e:	c7 01       	movw	r24, r14
     680:	b8 01       	movw	r22, r16
     682:	0e 94 f7 05 	call	0xbee	; 0xbee <__fpcmp_parts_f>
     686:	01 c0       	rjmp	.+2      	; 0x68a <__gtsf2+0x58>
     688:	8f ef       	ldi	r24, 0xFF	; 255
     68a:	68 96       	adiw	r28, 0x18	; 24
     68c:	e6 e0       	ldi	r30, 0x06	; 6
     68e:	0c 94 7c 19 	jmp	0x32f8	; 0x32f8 <__epilogue_restores__+0x18>

00000692 <__gesf2>:
     692:	a8 e1       	ldi	r26, 0x18	; 24
     694:	b0 e0       	ldi	r27, 0x00	; 0
     696:	ef e4       	ldi	r30, 0x4F	; 79
     698:	f3 e0       	ldi	r31, 0x03	; 3
     69a:	0c 94 60 19 	jmp	0x32c0	; 0x32c0 <__prologue_saves__+0x18>
     69e:	69 83       	std	Y+1, r22	; 0x01
     6a0:	7a 83       	std	Y+2, r23	; 0x02
     6a2:	8b 83       	std	Y+3, r24	; 0x03
     6a4:	9c 83       	std	Y+4, r25	; 0x04
     6a6:	2d 83       	std	Y+5, r18	; 0x05
     6a8:	3e 83       	std	Y+6, r19	; 0x06
     6aa:	4f 83       	std	Y+7, r20	; 0x07
     6ac:	58 87       	std	Y+8, r21	; 0x08
     6ae:	89 e0       	ldi	r24, 0x09	; 9
     6b0:	e8 2e       	mov	r14, r24
     6b2:	f1 2c       	mov	r15, r1
     6b4:	ec 0e       	add	r14, r28
     6b6:	fd 1e       	adc	r15, r29
     6b8:	ce 01       	movw	r24, r28
     6ba:	01 96       	adiw	r24, 0x01	; 1
     6bc:	b7 01       	movw	r22, r14
     6be:	0e 94 7f 05 	call	0xafe	; 0xafe <__unpack_f>
     6c2:	8e 01       	movw	r16, r28
     6c4:	0f 5e       	subi	r16, 0xEF	; 239
     6c6:	1f 4f       	sbci	r17, 0xFF	; 255
     6c8:	ce 01       	movw	r24, r28
     6ca:	05 96       	adiw	r24, 0x05	; 5
     6cc:	b8 01       	movw	r22, r16
     6ce:	0e 94 7f 05 	call	0xafe	; 0xafe <__unpack_f>
     6d2:	89 85       	ldd	r24, Y+9	; 0x09
     6d4:	82 30       	cpi	r24, 0x02	; 2
     6d6:	40 f0       	brcs	.+16     	; 0x6e8 <__gesf2+0x56>
     6d8:	89 89       	ldd	r24, Y+17	; 0x11
     6da:	82 30       	cpi	r24, 0x02	; 2
     6dc:	28 f0       	brcs	.+10     	; 0x6e8 <__gesf2+0x56>
     6de:	c7 01       	movw	r24, r14
     6e0:	b8 01       	movw	r22, r16
     6e2:	0e 94 f7 05 	call	0xbee	; 0xbee <__fpcmp_parts_f>
     6e6:	01 c0       	rjmp	.+2      	; 0x6ea <__gesf2+0x58>
     6e8:	8f ef       	ldi	r24, 0xFF	; 255
     6ea:	68 96       	adiw	r28, 0x18	; 24
     6ec:	e6 e0       	ldi	r30, 0x06	; 6
     6ee:	0c 94 7c 19 	jmp	0x32f8	; 0x32f8 <__epilogue_restores__+0x18>

000006f2 <__ltsf2>:
     6f2:	a8 e1       	ldi	r26, 0x18	; 24
     6f4:	b0 e0       	ldi	r27, 0x00	; 0
     6f6:	ef e7       	ldi	r30, 0x7F	; 127
     6f8:	f3 e0       	ldi	r31, 0x03	; 3
     6fa:	0c 94 60 19 	jmp	0x32c0	; 0x32c0 <__prologue_saves__+0x18>
     6fe:	69 83       	std	Y+1, r22	; 0x01
     700:	7a 83       	std	Y+2, r23	; 0x02
     702:	8b 83       	std	Y+3, r24	; 0x03
     704:	9c 83       	std	Y+4, r25	; 0x04
     706:	2d 83       	std	Y+5, r18	; 0x05
     708:	3e 83       	std	Y+6, r19	; 0x06
     70a:	4f 83       	std	Y+7, r20	; 0x07
     70c:	58 87       	std	Y+8, r21	; 0x08
     70e:	89 e0       	ldi	r24, 0x09	; 9
     710:	e8 2e       	mov	r14, r24
     712:	f1 2c       	mov	r15, r1
     714:	ec 0e       	add	r14, r28
     716:	fd 1e       	adc	r15, r29
     718:	ce 01       	movw	r24, r28
     71a:	01 96       	adiw	r24, 0x01	; 1
     71c:	b7 01       	movw	r22, r14
     71e:	0e 94 7f 05 	call	0xafe	; 0xafe <__unpack_f>
     722:	8e 01       	movw	r16, r28
     724:	0f 5e       	subi	r16, 0xEF	; 239
     726:	1f 4f       	sbci	r17, 0xFF	; 255
     728:	ce 01       	movw	r24, r28
     72a:	05 96       	adiw	r24, 0x05	; 5
     72c:	b8 01       	movw	r22, r16
     72e:	0e 94 7f 05 	call	0xafe	; 0xafe <__unpack_f>
     732:	89 85       	ldd	r24, Y+9	; 0x09
     734:	82 30       	cpi	r24, 0x02	; 2
     736:	40 f0       	brcs	.+16     	; 0x748 <__ltsf2+0x56>
     738:	89 89       	ldd	r24, Y+17	; 0x11
     73a:	82 30       	cpi	r24, 0x02	; 2
     73c:	28 f0       	brcs	.+10     	; 0x748 <__ltsf2+0x56>
     73e:	c7 01       	movw	r24, r14
     740:	b8 01       	movw	r22, r16
     742:	0e 94 f7 05 	call	0xbee	; 0xbee <__fpcmp_parts_f>
     746:	01 c0       	rjmp	.+2      	; 0x74a <__ltsf2+0x58>
     748:	81 e0       	ldi	r24, 0x01	; 1
     74a:	68 96       	adiw	r28, 0x18	; 24
     74c:	e6 e0       	ldi	r30, 0x06	; 6
     74e:	0c 94 7c 19 	jmp	0x32f8	; 0x32f8 <__epilogue_restores__+0x18>

00000752 <__floatsisf>:
     752:	a8 e0       	ldi	r26, 0x08	; 8
     754:	b0 e0       	ldi	r27, 0x00	; 0
     756:	ef ea       	ldi	r30, 0xAF	; 175
     758:	f3 e0       	ldi	r31, 0x03	; 3
     75a:	0c 94 5d 19 	jmp	0x32ba	; 0x32ba <__prologue_saves__+0x12>
     75e:	9b 01       	movw	r18, r22
     760:	ac 01       	movw	r20, r24
     762:	83 e0       	ldi	r24, 0x03	; 3
     764:	89 83       	std	Y+1, r24	; 0x01
     766:	da 01       	movw	r26, r20
     768:	c9 01       	movw	r24, r18
     76a:	88 27       	eor	r24, r24
     76c:	b7 fd       	sbrc	r27, 7
     76e:	83 95       	inc	r24
     770:	99 27       	eor	r25, r25
     772:	aa 27       	eor	r26, r26
     774:	bb 27       	eor	r27, r27
     776:	b8 2e       	mov	r11, r24
     778:	21 15       	cp	r18, r1
     77a:	31 05       	cpc	r19, r1
     77c:	41 05       	cpc	r20, r1
     77e:	51 05       	cpc	r21, r1
     780:	19 f4       	brne	.+6      	; 0x788 <__floatsisf+0x36>
     782:	82 e0       	ldi	r24, 0x02	; 2
     784:	89 83       	std	Y+1, r24	; 0x01
     786:	3a c0       	rjmp	.+116    	; 0x7fc <__floatsisf+0xaa>
     788:	88 23       	and	r24, r24
     78a:	a9 f0       	breq	.+42     	; 0x7b6 <__floatsisf+0x64>
     78c:	20 30       	cpi	r18, 0x00	; 0
     78e:	80 e0       	ldi	r24, 0x00	; 0
     790:	38 07       	cpc	r19, r24
     792:	80 e0       	ldi	r24, 0x00	; 0
     794:	48 07       	cpc	r20, r24
     796:	80 e8       	ldi	r24, 0x80	; 128
     798:	58 07       	cpc	r21, r24
     79a:	29 f4       	brne	.+10     	; 0x7a6 <__floatsisf+0x54>
     79c:	60 e0       	ldi	r22, 0x00	; 0
     79e:	70 e0       	ldi	r23, 0x00	; 0
     7a0:	80 e0       	ldi	r24, 0x00	; 0
     7a2:	9f ec       	ldi	r25, 0xCF	; 207
     7a4:	30 c0       	rjmp	.+96     	; 0x806 <__floatsisf+0xb4>
     7a6:	ee 24       	eor	r14, r14
     7a8:	ff 24       	eor	r15, r15
     7aa:	87 01       	movw	r16, r14
     7ac:	e2 1a       	sub	r14, r18
     7ae:	f3 0a       	sbc	r15, r19
     7b0:	04 0b       	sbc	r16, r20
     7b2:	15 0b       	sbc	r17, r21
     7b4:	02 c0       	rjmp	.+4      	; 0x7ba <__floatsisf+0x68>
     7b6:	79 01       	movw	r14, r18
     7b8:	8a 01       	movw	r16, r20
     7ba:	8e e1       	ldi	r24, 0x1E	; 30
     7bc:	c8 2e       	mov	r12, r24
     7be:	d1 2c       	mov	r13, r1
     7c0:	dc 82       	std	Y+4, r13	; 0x04
     7c2:	cb 82       	std	Y+3, r12	; 0x03
     7c4:	ed 82       	std	Y+5, r14	; 0x05
     7c6:	fe 82       	std	Y+6, r15	; 0x06
     7c8:	0f 83       	std	Y+7, r16	; 0x07
     7ca:	18 87       	std	Y+8, r17	; 0x08
     7cc:	c8 01       	movw	r24, r16
     7ce:	b7 01       	movw	r22, r14
     7d0:	0e 94 5b 04 	call	0x8b6	; 0x8b6 <__clzsi2>
     7d4:	01 97       	sbiw	r24, 0x01	; 1
     7d6:	18 16       	cp	r1, r24
     7d8:	19 06       	cpc	r1, r25
     7da:	84 f4       	brge	.+32     	; 0x7fc <__floatsisf+0xaa>
     7dc:	08 2e       	mov	r0, r24
     7de:	04 c0       	rjmp	.+8      	; 0x7e8 <__floatsisf+0x96>
     7e0:	ee 0c       	add	r14, r14
     7e2:	ff 1c       	adc	r15, r15
     7e4:	00 1f       	adc	r16, r16
     7e6:	11 1f       	adc	r17, r17
     7e8:	0a 94       	dec	r0
     7ea:	d2 f7       	brpl	.-12     	; 0x7e0 <__floatsisf+0x8e>
     7ec:	ed 82       	std	Y+5, r14	; 0x05
     7ee:	fe 82       	std	Y+6, r15	; 0x06
     7f0:	0f 83       	std	Y+7, r16	; 0x07
     7f2:	18 87       	std	Y+8, r17	; 0x08
     7f4:	c8 1a       	sub	r12, r24
     7f6:	d9 0a       	sbc	r13, r25
     7f8:	dc 82       	std	Y+4, r13	; 0x04
     7fa:	cb 82       	std	Y+3, r12	; 0x03
     7fc:	ba 82       	std	Y+2, r11	; 0x02
     7fe:	ce 01       	movw	r24, r28
     800:	01 96       	adiw	r24, 0x01	; 1
     802:	0e 94 aa 04 	call	0x954	; 0x954 <__pack_f>
     806:	28 96       	adiw	r28, 0x08	; 8
     808:	e9 e0       	ldi	r30, 0x09	; 9
     80a:	0c 94 79 19 	jmp	0x32f2	; 0x32f2 <__epilogue_restores__+0x12>

0000080e <__fixsfsi>:
     80e:	ac e0       	ldi	r26, 0x0C	; 12
     810:	b0 e0       	ldi	r27, 0x00	; 0
     812:	ed e0       	ldi	r30, 0x0D	; 13
     814:	f4 e0       	ldi	r31, 0x04	; 4
     816:	0c 94 64 19 	jmp	0x32c8	; 0x32c8 <__prologue_saves__+0x20>
     81a:	69 83       	std	Y+1, r22	; 0x01
     81c:	7a 83       	std	Y+2, r23	; 0x02
     81e:	8b 83       	std	Y+3, r24	; 0x03
     820:	9c 83       	std	Y+4, r25	; 0x04
     822:	ce 01       	movw	r24, r28
     824:	01 96       	adiw	r24, 0x01	; 1
     826:	be 01       	movw	r22, r28
     828:	6b 5f       	subi	r22, 0xFB	; 251
     82a:	7f 4f       	sbci	r23, 0xFF	; 255
     82c:	0e 94 7f 05 	call	0xafe	; 0xafe <__unpack_f>
     830:	8d 81       	ldd	r24, Y+5	; 0x05
     832:	82 30       	cpi	r24, 0x02	; 2
     834:	61 f1       	breq	.+88     	; 0x88e <__stack+0x2f>
     836:	82 30       	cpi	r24, 0x02	; 2
     838:	50 f1       	brcs	.+84     	; 0x88e <__stack+0x2f>
     83a:	84 30       	cpi	r24, 0x04	; 4
     83c:	21 f4       	brne	.+8      	; 0x846 <__fixsfsi+0x38>
     83e:	8e 81       	ldd	r24, Y+6	; 0x06
     840:	88 23       	and	r24, r24
     842:	51 f1       	breq	.+84     	; 0x898 <__stack+0x39>
     844:	2e c0       	rjmp	.+92     	; 0x8a2 <__stack+0x43>
     846:	2f 81       	ldd	r18, Y+7	; 0x07
     848:	38 85       	ldd	r19, Y+8	; 0x08
     84a:	37 fd       	sbrc	r19, 7
     84c:	20 c0       	rjmp	.+64     	; 0x88e <__stack+0x2f>
     84e:	6e 81       	ldd	r22, Y+6	; 0x06
     850:	2f 31       	cpi	r18, 0x1F	; 31
     852:	31 05       	cpc	r19, r1
     854:	1c f0       	brlt	.+6      	; 0x85c <__fixsfsi+0x4e>
     856:	66 23       	and	r22, r22
     858:	f9 f0       	breq	.+62     	; 0x898 <__stack+0x39>
     85a:	23 c0       	rjmp	.+70     	; 0x8a2 <__stack+0x43>
     85c:	8e e1       	ldi	r24, 0x1E	; 30
     85e:	90 e0       	ldi	r25, 0x00	; 0
     860:	82 1b       	sub	r24, r18
     862:	93 0b       	sbc	r25, r19
     864:	29 85       	ldd	r18, Y+9	; 0x09
     866:	3a 85       	ldd	r19, Y+10	; 0x0a
     868:	4b 85       	ldd	r20, Y+11	; 0x0b
     86a:	5c 85       	ldd	r21, Y+12	; 0x0c
     86c:	04 c0       	rjmp	.+8      	; 0x876 <__stack+0x17>
     86e:	56 95       	lsr	r21
     870:	47 95       	ror	r20
     872:	37 95       	ror	r19
     874:	27 95       	ror	r18
     876:	8a 95       	dec	r24
     878:	d2 f7       	brpl	.-12     	; 0x86e <__stack+0xf>
     87a:	66 23       	and	r22, r22
     87c:	b1 f0       	breq	.+44     	; 0x8aa <__stack+0x4b>
     87e:	50 95       	com	r21
     880:	40 95       	com	r20
     882:	30 95       	com	r19
     884:	21 95       	neg	r18
     886:	3f 4f       	sbci	r19, 0xFF	; 255
     888:	4f 4f       	sbci	r20, 0xFF	; 255
     88a:	5f 4f       	sbci	r21, 0xFF	; 255
     88c:	0e c0       	rjmp	.+28     	; 0x8aa <__stack+0x4b>
     88e:	20 e0       	ldi	r18, 0x00	; 0
     890:	30 e0       	ldi	r19, 0x00	; 0
     892:	40 e0       	ldi	r20, 0x00	; 0
     894:	50 e0       	ldi	r21, 0x00	; 0
     896:	09 c0       	rjmp	.+18     	; 0x8aa <__stack+0x4b>
     898:	2f ef       	ldi	r18, 0xFF	; 255
     89a:	3f ef       	ldi	r19, 0xFF	; 255
     89c:	4f ef       	ldi	r20, 0xFF	; 255
     89e:	5f e7       	ldi	r21, 0x7F	; 127
     8a0:	04 c0       	rjmp	.+8      	; 0x8aa <__stack+0x4b>
     8a2:	20 e0       	ldi	r18, 0x00	; 0
     8a4:	30 e0       	ldi	r19, 0x00	; 0
     8a6:	40 e0       	ldi	r20, 0x00	; 0
     8a8:	50 e8       	ldi	r21, 0x80	; 128
     8aa:	b9 01       	movw	r22, r18
     8ac:	ca 01       	movw	r24, r20
     8ae:	2c 96       	adiw	r28, 0x0c	; 12
     8b0:	e2 e0       	ldi	r30, 0x02	; 2
     8b2:	0c 94 80 19 	jmp	0x3300	; 0x3300 <__epilogue_restores__+0x20>

000008b6 <__clzsi2>:
     8b6:	ef 92       	push	r14
     8b8:	ff 92       	push	r15
     8ba:	0f 93       	push	r16
     8bc:	1f 93       	push	r17
     8be:	7b 01       	movw	r14, r22
     8c0:	8c 01       	movw	r16, r24
     8c2:	80 e0       	ldi	r24, 0x00	; 0
     8c4:	e8 16       	cp	r14, r24
     8c6:	80 e0       	ldi	r24, 0x00	; 0
     8c8:	f8 06       	cpc	r15, r24
     8ca:	81 e0       	ldi	r24, 0x01	; 1
     8cc:	08 07       	cpc	r16, r24
     8ce:	80 e0       	ldi	r24, 0x00	; 0
     8d0:	18 07       	cpc	r17, r24
     8d2:	88 f4       	brcc	.+34     	; 0x8f6 <__clzsi2+0x40>
     8d4:	8f ef       	ldi	r24, 0xFF	; 255
     8d6:	e8 16       	cp	r14, r24
     8d8:	f1 04       	cpc	r15, r1
     8da:	01 05       	cpc	r16, r1
     8dc:	11 05       	cpc	r17, r1
     8de:	31 f0       	breq	.+12     	; 0x8ec <__clzsi2+0x36>
     8e0:	28 f0       	brcs	.+10     	; 0x8ec <__clzsi2+0x36>
     8e2:	88 e0       	ldi	r24, 0x08	; 8
     8e4:	90 e0       	ldi	r25, 0x00	; 0
     8e6:	a0 e0       	ldi	r26, 0x00	; 0
     8e8:	b0 e0       	ldi	r27, 0x00	; 0
     8ea:	17 c0       	rjmp	.+46     	; 0x91a <__clzsi2+0x64>
     8ec:	80 e0       	ldi	r24, 0x00	; 0
     8ee:	90 e0       	ldi	r25, 0x00	; 0
     8f0:	a0 e0       	ldi	r26, 0x00	; 0
     8f2:	b0 e0       	ldi	r27, 0x00	; 0
     8f4:	12 c0       	rjmp	.+36     	; 0x91a <__clzsi2+0x64>
     8f6:	80 e0       	ldi	r24, 0x00	; 0
     8f8:	e8 16       	cp	r14, r24
     8fa:	80 e0       	ldi	r24, 0x00	; 0
     8fc:	f8 06       	cpc	r15, r24
     8fe:	80 e0       	ldi	r24, 0x00	; 0
     900:	08 07       	cpc	r16, r24
     902:	81 e0       	ldi	r24, 0x01	; 1
     904:	18 07       	cpc	r17, r24
     906:	28 f0       	brcs	.+10     	; 0x912 <__clzsi2+0x5c>
     908:	88 e1       	ldi	r24, 0x18	; 24
     90a:	90 e0       	ldi	r25, 0x00	; 0
     90c:	a0 e0       	ldi	r26, 0x00	; 0
     90e:	b0 e0       	ldi	r27, 0x00	; 0
     910:	04 c0       	rjmp	.+8      	; 0x91a <__clzsi2+0x64>
     912:	80 e1       	ldi	r24, 0x10	; 16
     914:	90 e0       	ldi	r25, 0x00	; 0
     916:	a0 e0       	ldi	r26, 0x00	; 0
     918:	b0 e0       	ldi	r27, 0x00	; 0
     91a:	20 e2       	ldi	r18, 0x20	; 32
     91c:	30 e0       	ldi	r19, 0x00	; 0
     91e:	40 e0       	ldi	r20, 0x00	; 0
     920:	50 e0       	ldi	r21, 0x00	; 0
     922:	28 1b       	sub	r18, r24
     924:	39 0b       	sbc	r19, r25
     926:	4a 0b       	sbc	r20, r26
     928:	5b 0b       	sbc	r21, r27
     92a:	04 c0       	rjmp	.+8      	; 0x934 <__clzsi2+0x7e>
     92c:	16 95       	lsr	r17
     92e:	07 95       	ror	r16
     930:	f7 94       	ror	r15
     932:	e7 94       	ror	r14
     934:	8a 95       	dec	r24
     936:	d2 f7       	brpl	.-12     	; 0x92c <__clzsi2+0x76>
     938:	f7 01       	movw	r30, r14
     93a:	e0 56       	subi	r30, 0x60	; 96
     93c:	ff 4f       	sbci	r31, 0xFF	; 255
     93e:	80 81       	ld	r24, Z
     940:	28 1b       	sub	r18, r24
     942:	31 09       	sbc	r19, r1
     944:	41 09       	sbc	r20, r1
     946:	51 09       	sbc	r21, r1
     948:	c9 01       	movw	r24, r18
     94a:	1f 91       	pop	r17
     94c:	0f 91       	pop	r16
     94e:	ff 90       	pop	r15
     950:	ef 90       	pop	r14
     952:	08 95       	ret

00000954 <__pack_f>:
     954:	df 92       	push	r13
     956:	ef 92       	push	r14
     958:	ff 92       	push	r15
     95a:	0f 93       	push	r16
     95c:	1f 93       	push	r17
     95e:	fc 01       	movw	r30, r24
     960:	e4 80       	ldd	r14, Z+4	; 0x04
     962:	f5 80       	ldd	r15, Z+5	; 0x05
     964:	06 81       	ldd	r16, Z+6	; 0x06
     966:	17 81       	ldd	r17, Z+7	; 0x07
     968:	d1 80       	ldd	r13, Z+1	; 0x01
     96a:	80 81       	ld	r24, Z
     96c:	82 30       	cpi	r24, 0x02	; 2
     96e:	48 f4       	brcc	.+18     	; 0x982 <__pack_f+0x2e>
     970:	80 e0       	ldi	r24, 0x00	; 0
     972:	90 e0       	ldi	r25, 0x00	; 0
     974:	a0 e1       	ldi	r26, 0x10	; 16
     976:	b0 e0       	ldi	r27, 0x00	; 0
     978:	e8 2a       	or	r14, r24
     97a:	f9 2a       	or	r15, r25
     97c:	0a 2b       	or	r16, r26
     97e:	1b 2b       	or	r17, r27
     980:	a5 c0       	rjmp	.+330    	; 0xacc <__pack_f+0x178>
     982:	84 30       	cpi	r24, 0x04	; 4
     984:	09 f4       	brne	.+2      	; 0x988 <__pack_f+0x34>
     986:	9f c0       	rjmp	.+318    	; 0xac6 <__pack_f+0x172>
     988:	82 30       	cpi	r24, 0x02	; 2
     98a:	21 f4       	brne	.+8      	; 0x994 <__pack_f+0x40>
     98c:	ee 24       	eor	r14, r14
     98e:	ff 24       	eor	r15, r15
     990:	87 01       	movw	r16, r14
     992:	05 c0       	rjmp	.+10     	; 0x99e <__pack_f+0x4a>
     994:	e1 14       	cp	r14, r1
     996:	f1 04       	cpc	r15, r1
     998:	01 05       	cpc	r16, r1
     99a:	11 05       	cpc	r17, r1
     99c:	19 f4       	brne	.+6      	; 0x9a4 <__pack_f+0x50>
     99e:	e0 e0       	ldi	r30, 0x00	; 0
     9a0:	f0 e0       	ldi	r31, 0x00	; 0
     9a2:	96 c0       	rjmp	.+300    	; 0xad0 <__pack_f+0x17c>
     9a4:	62 81       	ldd	r22, Z+2	; 0x02
     9a6:	73 81       	ldd	r23, Z+3	; 0x03
     9a8:	9f ef       	ldi	r25, 0xFF	; 255
     9aa:	62 38       	cpi	r22, 0x82	; 130
     9ac:	79 07       	cpc	r23, r25
     9ae:	0c f0       	brlt	.+2      	; 0x9b2 <__pack_f+0x5e>
     9b0:	5b c0       	rjmp	.+182    	; 0xa68 <__pack_f+0x114>
     9b2:	22 e8       	ldi	r18, 0x82	; 130
     9b4:	3f ef       	ldi	r19, 0xFF	; 255
     9b6:	26 1b       	sub	r18, r22
     9b8:	37 0b       	sbc	r19, r23
     9ba:	2a 31       	cpi	r18, 0x1A	; 26
     9bc:	31 05       	cpc	r19, r1
     9be:	2c f0       	brlt	.+10     	; 0x9ca <__pack_f+0x76>
     9c0:	20 e0       	ldi	r18, 0x00	; 0
     9c2:	30 e0       	ldi	r19, 0x00	; 0
     9c4:	40 e0       	ldi	r20, 0x00	; 0
     9c6:	50 e0       	ldi	r21, 0x00	; 0
     9c8:	2a c0       	rjmp	.+84     	; 0xa1e <__pack_f+0xca>
     9ca:	b8 01       	movw	r22, r16
     9cc:	a7 01       	movw	r20, r14
     9ce:	02 2e       	mov	r0, r18
     9d0:	04 c0       	rjmp	.+8      	; 0x9da <__pack_f+0x86>
     9d2:	76 95       	lsr	r23
     9d4:	67 95       	ror	r22
     9d6:	57 95       	ror	r21
     9d8:	47 95       	ror	r20
     9da:	0a 94       	dec	r0
     9dc:	d2 f7       	brpl	.-12     	; 0x9d2 <__pack_f+0x7e>
     9de:	81 e0       	ldi	r24, 0x01	; 1
     9e0:	90 e0       	ldi	r25, 0x00	; 0
     9e2:	a0 e0       	ldi	r26, 0x00	; 0
     9e4:	b0 e0       	ldi	r27, 0x00	; 0
     9e6:	04 c0       	rjmp	.+8      	; 0x9f0 <__pack_f+0x9c>
     9e8:	88 0f       	add	r24, r24
     9ea:	99 1f       	adc	r25, r25
     9ec:	aa 1f       	adc	r26, r26
     9ee:	bb 1f       	adc	r27, r27
     9f0:	2a 95       	dec	r18
     9f2:	d2 f7       	brpl	.-12     	; 0x9e8 <__pack_f+0x94>
     9f4:	01 97       	sbiw	r24, 0x01	; 1
     9f6:	a1 09       	sbc	r26, r1
     9f8:	b1 09       	sbc	r27, r1
     9fa:	8e 21       	and	r24, r14
     9fc:	9f 21       	and	r25, r15
     9fe:	a0 23       	and	r26, r16
     a00:	b1 23       	and	r27, r17
     a02:	00 97       	sbiw	r24, 0x00	; 0
     a04:	a1 05       	cpc	r26, r1
     a06:	b1 05       	cpc	r27, r1
     a08:	21 f0       	breq	.+8      	; 0xa12 <__pack_f+0xbe>
     a0a:	81 e0       	ldi	r24, 0x01	; 1
     a0c:	90 e0       	ldi	r25, 0x00	; 0
     a0e:	a0 e0       	ldi	r26, 0x00	; 0
     a10:	b0 e0       	ldi	r27, 0x00	; 0
     a12:	9a 01       	movw	r18, r20
     a14:	ab 01       	movw	r20, r22
     a16:	28 2b       	or	r18, r24
     a18:	39 2b       	or	r19, r25
     a1a:	4a 2b       	or	r20, r26
     a1c:	5b 2b       	or	r21, r27
     a1e:	da 01       	movw	r26, r20
     a20:	c9 01       	movw	r24, r18
     a22:	8f 77       	andi	r24, 0x7F	; 127
     a24:	90 70       	andi	r25, 0x00	; 0
     a26:	a0 70       	andi	r26, 0x00	; 0
     a28:	b0 70       	andi	r27, 0x00	; 0
     a2a:	80 34       	cpi	r24, 0x40	; 64
     a2c:	91 05       	cpc	r25, r1
     a2e:	a1 05       	cpc	r26, r1
     a30:	b1 05       	cpc	r27, r1
     a32:	39 f4       	brne	.+14     	; 0xa42 <__pack_f+0xee>
     a34:	27 ff       	sbrs	r18, 7
     a36:	09 c0       	rjmp	.+18     	; 0xa4a <__pack_f+0xf6>
     a38:	20 5c       	subi	r18, 0xC0	; 192
     a3a:	3f 4f       	sbci	r19, 0xFF	; 255
     a3c:	4f 4f       	sbci	r20, 0xFF	; 255
     a3e:	5f 4f       	sbci	r21, 0xFF	; 255
     a40:	04 c0       	rjmp	.+8      	; 0xa4a <__pack_f+0xf6>
     a42:	21 5c       	subi	r18, 0xC1	; 193
     a44:	3f 4f       	sbci	r19, 0xFF	; 255
     a46:	4f 4f       	sbci	r20, 0xFF	; 255
     a48:	5f 4f       	sbci	r21, 0xFF	; 255
     a4a:	e0 e0       	ldi	r30, 0x00	; 0
     a4c:	f0 e0       	ldi	r31, 0x00	; 0
     a4e:	20 30       	cpi	r18, 0x00	; 0
     a50:	a0 e0       	ldi	r26, 0x00	; 0
     a52:	3a 07       	cpc	r19, r26
     a54:	a0 e0       	ldi	r26, 0x00	; 0
     a56:	4a 07       	cpc	r20, r26
     a58:	a0 e4       	ldi	r26, 0x40	; 64
     a5a:	5a 07       	cpc	r21, r26
     a5c:	10 f0       	brcs	.+4      	; 0xa62 <__pack_f+0x10e>
     a5e:	e1 e0       	ldi	r30, 0x01	; 1
     a60:	f0 e0       	ldi	r31, 0x00	; 0
     a62:	79 01       	movw	r14, r18
     a64:	8a 01       	movw	r16, r20
     a66:	27 c0       	rjmp	.+78     	; 0xab6 <__pack_f+0x162>
     a68:	60 38       	cpi	r22, 0x80	; 128
     a6a:	71 05       	cpc	r23, r1
     a6c:	64 f5       	brge	.+88     	; 0xac6 <__pack_f+0x172>
     a6e:	fb 01       	movw	r30, r22
     a70:	e1 58       	subi	r30, 0x81	; 129
     a72:	ff 4f       	sbci	r31, 0xFF	; 255
     a74:	d8 01       	movw	r26, r16
     a76:	c7 01       	movw	r24, r14
     a78:	8f 77       	andi	r24, 0x7F	; 127
     a7a:	90 70       	andi	r25, 0x00	; 0
     a7c:	a0 70       	andi	r26, 0x00	; 0
     a7e:	b0 70       	andi	r27, 0x00	; 0
     a80:	80 34       	cpi	r24, 0x40	; 64
     a82:	91 05       	cpc	r25, r1
     a84:	a1 05       	cpc	r26, r1
     a86:	b1 05       	cpc	r27, r1
     a88:	39 f4       	brne	.+14     	; 0xa98 <__pack_f+0x144>
     a8a:	e7 fe       	sbrs	r14, 7
     a8c:	0d c0       	rjmp	.+26     	; 0xaa8 <__pack_f+0x154>
     a8e:	80 e4       	ldi	r24, 0x40	; 64
     a90:	90 e0       	ldi	r25, 0x00	; 0
     a92:	a0 e0       	ldi	r26, 0x00	; 0
     a94:	b0 e0       	ldi	r27, 0x00	; 0
     a96:	04 c0       	rjmp	.+8      	; 0xaa0 <__pack_f+0x14c>
     a98:	8f e3       	ldi	r24, 0x3F	; 63
     a9a:	90 e0       	ldi	r25, 0x00	; 0
     a9c:	a0 e0       	ldi	r26, 0x00	; 0
     a9e:	b0 e0       	ldi	r27, 0x00	; 0
     aa0:	e8 0e       	add	r14, r24
     aa2:	f9 1e       	adc	r15, r25
     aa4:	0a 1f       	adc	r16, r26
     aa6:	1b 1f       	adc	r17, r27
     aa8:	17 ff       	sbrs	r17, 7
     aaa:	05 c0       	rjmp	.+10     	; 0xab6 <__pack_f+0x162>
     aac:	16 95       	lsr	r17
     aae:	07 95       	ror	r16
     ab0:	f7 94       	ror	r15
     ab2:	e7 94       	ror	r14
     ab4:	31 96       	adiw	r30, 0x01	; 1
     ab6:	87 e0       	ldi	r24, 0x07	; 7
     ab8:	16 95       	lsr	r17
     aba:	07 95       	ror	r16
     abc:	f7 94       	ror	r15
     abe:	e7 94       	ror	r14
     ac0:	8a 95       	dec	r24
     ac2:	d1 f7       	brne	.-12     	; 0xab8 <__pack_f+0x164>
     ac4:	05 c0       	rjmp	.+10     	; 0xad0 <__pack_f+0x17c>
     ac6:	ee 24       	eor	r14, r14
     ac8:	ff 24       	eor	r15, r15
     aca:	87 01       	movw	r16, r14
     acc:	ef ef       	ldi	r30, 0xFF	; 255
     ace:	f0 e0       	ldi	r31, 0x00	; 0
     ad0:	6e 2f       	mov	r22, r30
     ad2:	67 95       	ror	r22
     ad4:	66 27       	eor	r22, r22
     ad6:	67 95       	ror	r22
     ad8:	90 2f       	mov	r25, r16
     ada:	9f 77       	andi	r25, 0x7F	; 127
     adc:	d7 94       	ror	r13
     ade:	dd 24       	eor	r13, r13
     ae0:	d7 94       	ror	r13
     ae2:	8e 2f       	mov	r24, r30
     ae4:	86 95       	lsr	r24
     ae6:	49 2f       	mov	r20, r25
     ae8:	46 2b       	or	r20, r22
     aea:	58 2f       	mov	r21, r24
     aec:	5d 29       	or	r21, r13
     aee:	b7 01       	movw	r22, r14
     af0:	ca 01       	movw	r24, r20
     af2:	1f 91       	pop	r17
     af4:	0f 91       	pop	r16
     af6:	ff 90       	pop	r15
     af8:	ef 90       	pop	r14
     afa:	df 90       	pop	r13
     afc:	08 95       	ret

00000afe <__unpack_f>:
     afe:	fc 01       	movw	r30, r24
     b00:	db 01       	movw	r26, r22
     b02:	40 81       	ld	r20, Z
     b04:	51 81       	ldd	r21, Z+1	; 0x01
     b06:	22 81       	ldd	r18, Z+2	; 0x02
     b08:	62 2f       	mov	r22, r18
     b0a:	6f 77       	andi	r22, 0x7F	; 127
     b0c:	70 e0       	ldi	r23, 0x00	; 0
     b0e:	22 1f       	adc	r18, r18
     b10:	22 27       	eor	r18, r18
     b12:	22 1f       	adc	r18, r18
     b14:	93 81       	ldd	r25, Z+3	; 0x03
     b16:	89 2f       	mov	r24, r25
     b18:	88 0f       	add	r24, r24
     b1a:	82 2b       	or	r24, r18
     b1c:	28 2f       	mov	r18, r24
     b1e:	30 e0       	ldi	r19, 0x00	; 0
     b20:	99 1f       	adc	r25, r25
     b22:	99 27       	eor	r25, r25
     b24:	99 1f       	adc	r25, r25
     b26:	11 96       	adiw	r26, 0x01	; 1
     b28:	9c 93       	st	X, r25
     b2a:	11 97       	sbiw	r26, 0x01	; 1
     b2c:	21 15       	cp	r18, r1
     b2e:	31 05       	cpc	r19, r1
     b30:	a9 f5       	brne	.+106    	; 0xb9c <__unpack_f+0x9e>
     b32:	41 15       	cp	r20, r1
     b34:	51 05       	cpc	r21, r1
     b36:	61 05       	cpc	r22, r1
     b38:	71 05       	cpc	r23, r1
     b3a:	11 f4       	brne	.+4      	; 0xb40 <__unpack_f+0x42>
     b3c:	82 e0       	ldi	r24, 0x02	; 2
     b3e:	37 c0       	rjmp	.+110    	; 0xbae <__unpack_f+0xb0>
     b40:	82 e8       	ldi	r24, 0x82	; 130
     b42:	9f ef       	ldi	r25, 0xFF	; 255
     b44:	13 96       	adiw	r26, 0x03	; 3
     b46:	9c 93       	st	X, r25
     b48:	8e 93       	st	-X, r24
     b4a:	12 97       	sbiw	r26, 0x02	; 2
     b4c:	9a 01       	movw	r18, r20
     b4e:	ab 01       	movw	r20, r22
     b50:	67 e0       	ldi	r22, 0x07	; 7
     b52:	22 0f       	add	r18, r18
     b54:	33 1f       	adc	r19, r19
     b56:	44 1f       	adc	r20, r20
     b58:	55 1f       	adc	r21, r21
     b5a:	6a 95       	dec	r22
     b5c:	d1 f7       	brne	.-12     	; 0xb52 <__unpack_f+0x54>
     b5e:	83 e0       	ldi	r24, 0x03	; 3
     b60:	8c 93       	st	X, r24
     b62:	0d c0       	rjmp	.+26     	; 0xb7e <__unpack_f+0x80>
     b64:	22 0f       	add	r18, r18
     b66:	33 1f       	adc	r19, r19
     b68:	44 1f       	adc	r20, r20
     b6a:	55 1f       	adc	r21, r21
     b6c:	12 96       	adiw	r26, 0x02	; 2
     b6e:	8d 91       	ld	r24, X+
     b70:	9c 91       	ld	r25, X
     b72:	13 97       	sbiw	r26, 0x03	; 3
     b74:	01 97       	sbiw	r24, 0x01	; 1
     b76:	13 96       	adiw	r26, 0x03	; 3
     b78:	9c 93       	st	X, r25
     b7a:	8e 93       	st	-X, r24
     b7c:	12 97       	sbiw	r26, 0x02	; 2
     b7e:	20 30       	cpi	r18, 0x00	; 0
     b80:	80 e0       	ldi	r24, 0x00	; 0
     b82:	38 07       	cpc	r19, r24
     b84:	80 e0       	ldi	r24, 0x00	; 0
     b86:	48 07       	cpc	r20, r24
     b88:	80 e4       	ldi	r24, 0x40	; 64
     b8a:	58 07       	cpc	r21, r24
     b8c:	58 f3       	brcs	.-42     	; 0xb64 <__unpack_f+0x66>
     b8e:	14 96       	adiw	r26, 0x04	; 4
     b90:	2d 93       	st	X+, r18
     b92:	3d 93       	st	X+, r19
     b94:	4d 93       	st	X+, r20
     b96:	5c 93       	st	X, r21
     b98:	17 97       	sbiw	r26, 0x07	; 7
     b9a:	08 95       	ret
     b9c:	2f 3f       	cpi	r18, 0xFF	; 255
     b9e:	31 05       	cpc	r19, r1
     ba0:	79 f4       	brne	.+30     	; 0xbc0 <__unpack_f+0xc2>
     ba2:	41 15       	cp	r20, r1
     ba4:	51 05       	cpc	r21, r1
     ba6:	61 05       	cpc	r22, r1
     ba8:	71 05       	cpc	r23, r1
     baa:	19 f4       	brne	.+6      	; 0xbb2 <__unpack_f+0xb4>
     bac:	84 e0       	ldi	r24, 0x04	; 4
     bae:	8c 93       	st	X, r24
     bb0:	08 95       	ret
     bb2:	64 ff       	sbrs	r22, 4
     bb4:	03 c0       	rjmp	.+6      	; 0xbbc <__unpack_f+0xbe>
     bb6:	81 e0       	ldi	r24, 0x01	; 1
     bb8:	8c 93       	st	X, r24
     bba:	12 c0       	rjmp	.+36     	; 0xbe0 <__unpack_f+0xe2>
     bbc:	1c 92       	st	X, r1
     bbe:	10 c0       	rjmp	.+32     	; 0xbe0 <__unpack_f+0xe2>
     bc0:	2f 57       	subi	r18, 0x7F	; 127
     bc2:	30 40       	sbci	r19, 0x00	; 0
     bc4:	13 96       	adiw	r26, 0x03	; 3
     bc6:	3c 93       	st	X, r19
     bc8:	2e 93       	st	-X, r18
     bca:	12 97       	sbiw	r26, 0x02	; 2
     bcc:	83 e0       	ldi	r24, 0x03	; 3
     bce:	8c 93       	st	X, r24
     bd0:	87 e0       	ldi	r24, 0x07	; 7
     bd2:	44 0f       	add	r20, r20
     bd4:	55 1f       	adc	r21, r21
     bd6:	66 1f       	adc	r22, r22
     bd8:	77 1f       	adc	r23, r23
     bda:	8a 95       	dec	r24
     bdc:	d1 f7       	brne	.-12     	; 0xbd2 <__unpack_f+0xd4>
     bde:	70 64       	ori	r23, 0x40	; 64
     be0:	14 96       	adiw	r26, 0x04	; 4
     be2:	4d 93       	st	X+, r20
     be4:	5d 93       	st	X+, r21
     be6:	6d 93       	st	X+, r22
     be8:	7c 93       	st	X, r23
     bea:	17 97       	sbiw	r26, 0x07	; 7
     bec:	08 95       	ret

00000bee <__fpcmp_parts_f>:
     bee:	1f 93       	push	r17
     bf0:	dc 01       	movw	r26, r24
     bf2:	fb 01       	movw	r30, r22
     bf4:	9c 91       	ld	r25, X
     bf6:	92 30       	cpi	r25, 0x02	; 2
     bf8:	08 f4       	brcc	.+2      	; 0xbfc <__fpcmp_parts_f+0xe>
     bfa:	47 c0       	rjmp	.+142    	; 0xc8a <__fpcmp_parts_f+0x9c>
     bfc:	80 81       	ld	r24, Z
     bfe:	82 30       	cpi	r24, 0x02	; 2
     c00:	08 f4       	brcc	.+2      	; 0xc04 <__fpcmp_parts_f+0x16>
     c02:	43 c0       	rjmp	.+134    	; 0xc8a <__fpcmp_parts_f+0x9c>
     c04:	94 30       	cpi	r25, 0x04	; 4
     c06:	51 f4       	brne	.+20     	; 0xc1c <__fpcmp_parts_f+0x2e>
     c08:	11 96       	adiw	r26, 0x01	; 1
     c0a:	1c 91       	ld	r17, X
     c0c:	84 30       	cpi	r24, 0x04	; 4
     c0e:	99 f5       	brne	.+102    	; 0xc76 <__fpcmp_parts_f+0x88>
     c10:	81 81       	ldd	r24, Z+1	; 0x01
     c12:	68 2f       	mov	r22, r24
     c14:	70 e0       	ldi	r23, 0x00	; 0
     c16:	61 1b       	sub	r22, r17
     c18:	71 09       	sbc	r23, r1
     c1a:	3f c0       	rjmp	.+126    	; 0xc9a <__fpcmp_parts_f+0xac>
     c1c:	84 30       	cpi	r24, 0x04	; 4
     c1e:	21 f0       	breq	.+8      	; 0xc28 <__fpcmp_parts_f+0x3a>
     c20:	92 30       	cpi	r25, 0x02	; 2
     c22:	31 f4       	brne	.+12     	; 0xc30 <__fpcmp_parts_f+0x42>
     c24:	82 30       	cpi	r24, 0x02	; 2
     c26:	b9 f1       	breq	.+110    	; 0xc96 <__fpcmp_parts_f+0xa8>
     c28:	81 81       	ldd	r24, Z+1	; 0x01
     c2a:	88 23       	and	r24, r24
     c2c:	89 f1       	breq	.+98     	; 0xc90 <__fpcmp_parts_f+0xa2>
     c2e:	2d c0       	rjmp	.+90     	; 0xc8a <__fpcmp_parts_f+0x9c>
     c30:	11 96       	adiw	r26, 0x01	; 1
     c32:	1c 91       	ld	r17, X
     c34:	11 97       	sbiw	r26, 0x01	; 1
     c36:	82 30       	cpi	r24, 0x02	; 2
     c38:	f1 f0       	breq	.+60     	; 0xc76 <__fpcmp_parts_f+0x88>
     c3a:	81 81       	ldd	r24, Z+1	; 0x01
     c3c:	18 17       	cp	r17, r24
     c3e:	d9 f4       	brne	.+54     	; 0xc76 <__fpcmp_parts_f+0x88>
     c40:	12 96       	adiw	r26, 0x02	; 2
     c42:	2d 91       	ld	r18, X+
     c44:	3c 91       	ld	r19, X
     c46:	13 97       	sbiw	r26, 0x03	; 3
     c48:	82 81       	ldd	r24, Z+2	; 0x02
     c4a:	93 81       	ldd	r25, Z+3	; 0x03
     c4c:	82 17       	cp	r24, r18
     c4e:	93 07       	cpc	r25, r19
     c50:	94 f0       	brlt	.+36     	; 0xc76 <__fpcmp_parts_f+0x88>
     c52:	28 17       	cp	r18, r24
     c54:	39 07       	cpc	r19, r25
     c56:	bc f0       	brlt	.+46     	; 0xc86 <__fpcmp_parts_f+0x98>
     c58:	14 96       	adiw	r26, 0x04	; 4
     c5a:	8d 91       	ld	r24, X+
     c5c:	9d 91       	ld	r25, X+
     c5e:	0d 90       	ld	r0, X+
     c60:	bc 91       	ld	r27, X
     c62:	a0 2d       	mov	r26, r0
     c64:	24 81       	ldd	r18, Z+4	; 0x04
     c66:	35 81       	ldd	r19, Z+5	; 0x05
     c68:	46 81       	ldd	r20, Z+6	; 0x06
     c6a:	57 81       	ldd	r21, Z+7	; 0x07
     c6c:	28 17       	cp	r18, r24
     c6e:	39 07       	cpc	r19, r25
     c70:	4a 07       	cpc	r20, r26
     c72:	5b 07       	cpc	r21, r27
     c74:	18 f4       	brcc	.+6      	; 0xc7c <__fpcmp_parts_f+0x8e>
     c76:	11 23       	and	r17, r17
     c78:	41 f0       	breq	.+16     	; 0xc8a <__fpcmp_parts_f+0x9c>
     c7a:	0a c0       	rjmp	.+20     	; 0xc90 <__fpcmp_parts_f+0xa2>
     c7c:	82 17       	cp	r24, r18
     c7e:	93 07       	cpc	r25, r19
     c80:	a4 07       	cpc	r26, r20
     c82:	b5 07       	cpc	r27, r21
     c84:	40 f4       	brcc	.+16     	; 0xc96 <__fpcmp_parts_f+0xa8>
     c86:	11 23       	and	r17, r17
     c88:	19 f0       	breq	.+6      	; 0xc90 <__fpcmp_parts_f+0xa2>
     c8a:	61 e0       	ldi	r22, 0x01	; 1
     c8c:	70 e0       	ldi	r23, 0x00	; 0
     c8e:	05 c0       	rjmp	.+10     	; 0xc9a <__fpcmp_parts_f+0xac>
     c90:	6f ef       	ldi	r22, 0xFF	; 255
     c92:	7f ef       	ldi	r23, 0xFF	; 255
     c94:	02 c0       	rjmp	.+4      	; 0xc9a <__fpcmp_parts_f+0xac>
     c96:	60 e0       	ldi	r22, 0x00	; 0
     c98:	70 e0       	ldi	r23, 0x00	; 0
     c9a:	cb 01       	movw	r24, r22
     c9c:	1f 91       	pop	r17
     c9e:	08 95       	ret

00000ca0 <DIO_voidInit>:
#include "DIO_interface.h"
#include "DIO_private.h"
#include "DIO_config.h"

void DIO_voidInit         (void)
{
     ca0:	df 93       	push	r29
     ca2:	cf 93       	push	r28
     ca4:	cd b7       	in	r28, 0x3d	; 61
     ca6:	de b7       	in	r29, 0x3e	; 62
	DIO_u8_DDRA_REG = Conc(DIO_u8_PA7_INTIAL_DIRECTION,DIO_u8_PA6_INTIAL_DIRECTION,DIO_u8_PA5_INTIAL_DIRECTION,DIO_u8_PA4_INTIAL_DIRECTION,
     ca8:	ea e3       	ldi	r30, 0x3A	; 58
     caa:	f0 e0       	ldi	r31, 0x00	; 0
     cac:	8f ef       	ldi	r24, 0xFF	; 255
     cae:	80 83       	st	Z, r24
						   DIO_u8_PA3_INTIAL_DIRECTION,DIO_u8_PA2_INTIAL_DIRECTION,DIO_u8_PA1_INTIAL_DIRECTION,DIO_u8_PA0_INTIAL_DIRECTION);

	DIO_u8_DDRB_REG = Conc(DIO_u8_PB7_INTIAL_DIRECTION,DIO_u8_PB6_INTIAL_DIRECTION,DIO_u8_PB5_INTIAL_DIRECTION,DIO_u8_PB4_INTIAL_DIRECTION,
     cb0:	e7 e3       	ldi	r30, 0x37	; 55
     cb2:	f0 e0       	ldi	r31, 0x00	; 0
     cb4:	8f ef       	ldi	r24, 0xFF	; 255
     cb6:	80 83       	st	Z, r24
						   DIO_u8_PB3_INTIAL_DIRECTION,DIO_u8_PB2_INTIAL_DIRECTION,DIO_u8_PB1_INTIAL_DIRECTION,DIO_u8_PB0_INTIAL_DIRECTION);

	DIO_u8_DDRC_REG = Conc(DIO_u8_PC7_INTIAL_DIRECTION,DIO_u8_PC6_INTIAL_DIRECTION,DIO_u8_PC5_INTIAL_DIRECTION,DIO_u8_PC4_INTIAL_DIRECTION,
     cb8:	e4 e3       	ldi	r30, 0x34	; 52
     cba:	f0 e0       	ldi	r31, 0x00	; 0
     cbc:	86 e3       	ldi	r24, 0x36	; 54
     cbe:	80 83       	st	Z, r24
						   DIO_u8_PC3_INTIAL_DIRECTION,DIO_u8_PC2_INTIAL_DIRECTION,DIO_u8_PC1_INTIAL_DIRECTION,DIO_u8_PC0_INTIAL_DIRECTION);

	DIO_u8_DDRD_REG = Conc(DIO_u8_PD7_INTIAL_DIRECTION,DIO_u8_PD6_INTIAL_DIRECTION,DIO_u8_PD5_INTIAL_DIRECTION,DIO_u8_PD4_INTIAL_DIRECTION,
     cc0:	e1 e3       	ldi	r30, 0x31	; 49
     cc2:	f0 e0       	ldi	r31, 0x00	; 0
     cc4:	81 e0       	ldi	r24, 0x01	; 1
     cc6:	80 83       	st	Z, r24
						   DIO_u8_PD3_INTIAL_DIRECTION,DIO_u8_PD2_INTIAL_DIRECTION,DIO_u8_PD1_INTIAL_DIRECTION,DIO_u8_PD0_INTIAL_DIRECTION);						   

	DIO_u8_PORTA_REG = Conc(DIO_u8_PA7_INTIAL_VALUE,DIO_u8_PA6_INTIAL_VALUE,DIO_u8_PA5_INTIAL_VALUE,DIO_u8_PA4_INTIAL_VALUE,
     cc8:	eb e3       	ldi	r30, 0x3B	; 59
     cca:	f0 e0       	ldi	r31, 0x00	; 0
     ccc:	10 82       	st	Z, r1
						   DIO_u8_PA3_INTIAL_VALUE,DIO_u8_PA2_INTIAL_VALUE,DIO_u8_PA1_INTIAL_VALUE,DIO_u8_PA0_INTIAL_VALUE);
											                    
	DIO_u8_PORTB_REG = Conc(DIO_u8_PB7_INTIAL_VALUE,DIO_u8_PB6_INTIAL_VALUE,DIO_u8_PB5_INTIAL_VALUE,DIO_u8_PB4_INTIAL_VALUE,
     cce:	e8 e3       	ldi	r30, 0x38	; 56
     cd0:	f0 e0       	ldi	r31, 0x00	; 0
     cd2:	10 82       	st	Z, r1
						   DIO_u8_PB3_INTIAL_VALUE,DIO_u8_PB2_INTIAL_VALUE,DIO_u8_PB1_INTIAL_VALUE,DIO_u8_PB0_INTIAL_VALUE);
											 
	DIO_u8_PORTC_REG = Conc(DIO_u8_PC7_INTIAL_VALUE,DIO_u8_PC6_INTIAL_VALUE,DIO_u8_PC5_INTIAL_VALUE,DIO_u8_PC4_INTIAL_VALUE,
     cd4:	e5 e3       	ldi	r30, 0x35	; 53
     cd6:	f0 e0       	ldi	r31, 0x00	; 0
     cd8:	10 82       	st	Z, r1
						   DIO_u8_PC3_INTIAL_VALUE,DIO_u8_PC2_INTIAL_VALUE,DIO_u8_PC1_INTIAL_VALUE,DIO_u8_PC0_INTIAL_VALUE);
											 
	DIO_u8_PORTD_REG = Conc(DIO_u8_PD7_INTIAL_VALUE,DIO_u8_PD6_INTIAL_VALUE,DIO_u8_PD5_INTIAL_VALUE,DIO_u8_PD4_INTIAL_VALUE,
     cda:	e2 e3       	ldi	r30, 0x32	; 50
     cdc:	f0 e0       	ldi	r31, 0x00	; 0
     cde:	88 ef       	ldi	r24, 0xF8	; 248
     ce0:	80 83       	st	Z, r24
						   DIO_u8_PD3_INTIAL_VALUE,DIO_u8_PD2_INTIAL_VALUE,DIO_u8_PD1_INTIAL_VALUE,DIO_u8_PD0_INTIAL_VALUE);
}
     ce2:	cf 91       	pop	r28
     ce4:	df 91       	pop	r29
     ce6:	08 95       	ret

00000ce8 <DIO_u8SetPinDirection>:

u8  DIO_u8SetPinDirection (u8 Copy_u8PortId, u8 Copy_u8PinId ,u8 Copy_u8PinDirection)
{
     ce8:	df 93       	push	r29
     cea:	cf 93       	push	r28
     cec:	cd b7       	in	r28, 0x3d	; 61
     cee:	de b7       	in	r29, 0x3e	; 62
     cf0:	2e 97       	sbiw	r28, 0x0e	; 14
     cf2:	0f b6       	in	r0, 0x3f	; 63
     cf4:	f8 94       	cli
     cf6:	de bf       	out	0x3e, r29	; 62
     cf8:	0f be       	out	0x3f, r0	; 63
     cfa:	cd bf       	out	0x3d, r28	; 61
     cfc:	8a 83       	std	Y+2, r24	; 0x02
     cfe:	6b 83       	std	Y+3, r22	; 0x03
     d00:	4c 83       	std	Y+4, r20	; 0x04
	u8 Local_u8ErrorState = STD_TYPES_OK;
     d02:	81 e0       	ldi	r24, 0x01	; 1
     d04:	89 83       	std	Y+1, r24	; 0x01
	if((Copy_u8PortId <= DIO_u8_PORTD) && (Copy_u8PinId <= DIO_u8_PIN7) && ((Copy_u8PinDirection == DIO_u8_OUTPUT) || (Copy_u8PinDirection == DIO_u8_INPUT)))		
     d06:	8a 81       	ldd	r24, Y+2	; 0x02
     d08:	84 30       	cpi	r24, 0x04	; 4
     d0a:	08 f0       	brcs	.+2      	; 0xd0e <DIO_u8SetPinDirection+0x26>
     d0c:	0c c1       	rjmp	.+536    	; 0xf26 <DIO_u8SetPinDirection+0x23e>
     d0e:	8b 81       	ldd	r24, Y+3	; 0x03
     d10:	88 30       	cpi	r24, 0x08	; 8
     d12:	08 f0       	brcs	.+2      	; 0xd16 <DIO_u8SetPinDirection+0x2e>
     d14:	08 c1       	rjmp	.+528    	; 0xf26 <DIO_u8SetPinDirection+0x23e>
     d16:	8c 81       	ldd	r24, Y+4	; 0x04
     d18:	81 30       	cpi	r24, 0x01	; 1
     d1a:	21 f0       	breq	.+8      	; 0xd24 <DIO_u8SetPinDirection+0x3c>
     d1c:	8c 81       	ldd	r24, Y+4	; 0x04
     d1e:	88 23       	and	r24, r24
     d20:	09 f0       	breq	.+2      	; 0xd24 <DIO_u8SetPinDirection+0x3c>
     d22:	01 c1       	rjmp	.+514    	; 0xf26 <DIO_u8SetPinDirection+0x23e>
	{
		switch (Copy_u8PortId)
     d24:	8a 81       	ldd	r24, Y+2	; 0x02
     d26:	28 2f       	mov	r18, r24
     d28:	30 e0       	ldi	r19, 0x00	; 0
     d2a:	3e 87       	std	Y+14, r19	; 0x0e
     d2c:	2d 87       	std	Y+13, r18	; 0x0d
     d2e:	8d 85       	ldd	r24, Y+13	; 0x0d
     d30:	9e 85       	ldd	r25, Y+14	; 0x0e
     d32:	81 30       	cpi	r24, 0x01	; 1
     d34:	91 05       	cpc	r25, r1
     d36:	09 f4       	brne	.+2      	; 0xd3a <DIO_u8SetPinDirection+0x52>
     d38:	4f c0       	rjmp	.+158    	; 0xdd8 <DIO_u8SetPinDirection+0xf0>
     d3a:	2d 85       	ldd	r18, Y+13	; 0x0d
     d3c:	3e 85       	ldd	r19, Y+14	; 0x0e
     d3e:	22 30       	cpi	r18, 0x02	; 2
     d40:	31 05       	cpc	r19, r1
     d42:	2c f4       	brge	.+10     	; 0xd4e <DIO_u8SetPinDirection+0x66>
     d44:	8d 85       	ldd	r24, Y+13	; 0x0d
     d46:	9e 85       	ldd	r25, Y+14	; 0x0e
     d48:	00 97       	sbiw	r24, 0x00	; 0
     d4a:	71 f0       	breq	.+28     	; 0xd68 <DIO_u8SetPinDirection+0x80>
     d4c:	ed c0       	rjmp	.+474    	; 0xf28 <DIO_u8SetPinDirection+0x240>
     d4e:	2d 85       	ldd	r18, Y+13	; 0x0d
     d50:	3e 85       	ldd	r19, Y+14	; 0x0e
     d52:	22 30       	cpi	r18, 0x02	; 2
     d54:	31 05       	cpc	r19, r1
     d56:	09 f4       	brne	.+2      	; 0xd5a <DIO_u8SetPinDirection+0x72>
     d58:	77 c0       	rjmp	.+238    	; 0xe48 <DIO_u8SetPinDirection+0x160>
     d5a:	8d 85       	ldd	r24, Y+13	; 0x0d
     d5c:	9e 85       	ldd	r25, Y+14	; 0x0e
     d5e:	83 30       	cpi	r24, 0x03	; 3
     d60:	91 05       	cpc	r25, r1
     d62:	09 f4       	brne	.+2      	; 0xd66 <DIO_u8SetPinDirection+0x7e>
     d64:	a9 c0       	rjmp	.+338    	; 0xeb8 <DIO_u8SetPinDirection+0x1d0>
     d66:	e0 c0       	rjmp	.+448    	; 0xf28 <DIO_u8SetPinDirection+0x240>
		{
			case DIO_u8_PORTA:
				switch (Copy_u8PinDirection)
     d68:	8c 81       	ldd	r24, Y+4	; 0x04
     d6a:	28 2f       	mov	r18, r24
     d6c:	30 e0       	ldi	r19, 0x00	; 0
     d6e:	3c 87       	std	Y+12, r19	; 0x0c
     d70:	2b 87       	std	Y+11, r18	; 0x0b
     d72:	8b 85       	ldd	r24, Y+11	; 0x0b
     d74:	9c 85       	ldd	r25, Y+12	; 0x0c
     d76:	00 97       	sbiw	r24, 0x00	; 0
     d78:	d1 f0       	breq	.+52     	; 0xdae <DIO_u8SetPinDirection+0xc6>
     d7a:	2b 85       	ldd	r18, Y+11	; 0x0b
     d7c:	3c 85       	ldd	r19, Y+12	; 0x0c
     d7e:	21 30       	cpi	r18, 0x01	; 1
     d80:	31 05       	cpc	r19, r1
     d82:	09 f0       	breq	.+2      	; 0xd86 <DIO_u8SetPinDirection+0x9e>
     d84:	d1 c0       	rjmp	.+418    	; 0xf28 <DIO_u8SetPinDirection+0x240>
				{
					case DIO_u8_OUTPUT:SET_BIT(DIO_u8_DDRA_REG,Copy_u8PinId);break;
     d86:	aa e3       	ldi	r26, 0x3A	; 58
     d88:	b0 e0       	ldi	r27, 0x00	; 0
     d8a:	ea e3       	ldi	r30, 0x3A	; 58
     d8c:	f0 e0       	ldi	r31, 0x00	; 0
     d8e:	80 81       	ld	r24, Z
     d90:	48 2f       	mov	r20, r24
     d92:	8b 81       	ldd	r24, Y+3	; 0x03
     d94:	28 2f       	mov	r18, r24
     d96:	30 e0       	ldi	r19, 0x00	; 0
     d98:	81 e0       	ldi	r24, 0x01	; 1
     d9a:	90 e0       	ldi	r25, 0x00	; 0
     d9c:	02 2e       	mov	r0, r18
     d9e:	02 c0       	rjmp	.+4      	; 0xda4 <DIO_u8SetPinDirection+0xbc>
     da0:	88 0f       	add	r24, r24
     da2:	99 1f       	adc	r25, r25
     da4:	0a 94       	dec	r0
     da6:	e2 f7       	brpl	.-8      	; 0xda0 <DIO_u8SetPinDirection+0xb8>
     da8:	84 2b       	or	r24, r20
     daa:	8c 93       	st	X, r24
     dac:	bd c0       	rjmp	.+378    	; 0xf28 <DIO_u8SetPinDirection+0x240>
					case DIO_u8_INPUT: CLR_BIT(DIO_u8_DDRA_REG,Copy_u8PinId);break;
     dae:	aa e3       	ldi	r26, 0x3A	; 58
     db0:	b0 e0       	ldi	r27, 0x00	; 0
     db2:	ea e3       	ldi	r30, 0x3A	; 58
     db4:	f0 e0       	ldi	r31, 0x00	; 0
     db6:	80 81       	ld	r24, Z
     db8:	48 2f       	mov	r20, r24
     dba:	8b 81       	ldd	r24, Y+3	; 0x03
     dbc:	28 2f       	mov	r18, r24
     dbe:	30 e0       	ldi	r19, 0x00	; 0
     dc0:	81 e0       	ldi	r24, 0x01	; 1
     dc2:	90 e0       	ldi	r25, 0x00	; 0
     dc4:	02 2e       	mov	r0, r18
     dc6:	02 c0       	rjmp	.+4      	; 0xdcc <DIO_u8SetPinDirection+0xe4>
     dc8:	88 0f       	add	r24, r24
     dca:	99 1f       	adc	r25, r25
     dcc:	0a 94       	dec	r0
     dce:	e2 f7       	brpl	.-8      	; 0xdc8 <DIO_u8SetPinDirection+0xe0>
     dd0:	80 95       	com	r24
     dd2:	84 23       	and	r24, r20
     dd4:	8c 93       	st	X, r24
     dd6:	a8 c0       	rjmp	.+336    	; 0xf28 <DIO_u8SetPinDirection+0x240>
				}
			break;
			case DIO_u8_PORTB:
				switch (Copy_u8PinDirection)
     dd8:	8c 81       	ldd	r24, Y+4	; 0x04
     dda:	28 2f       	mov	r18, r24
     ddc:	30 e0       	ldi	r19, 0x00	; 0
     dde:	3a 87       	std	Y+10, r19	; 0x0a
     de0:	29 87       	std	Y+9, r18	; 0x09
     de2:	89 85       	ldd	r24, Y+9	; 0x09
     de4:	9a 85       	ldd	r25, Y+10	; 0x0a
     de6:	00 97       	sbiw	r24, 0x00	; 0
     de8:	d1 f0       	breq	.+52     	; 0xe1e <DIO_u8SetPinDirection+0x136>
     dea:	29 85       	ldd	r18, Y+9	; 0x09
     dec:	3a 85       	ldd	r19, Y+10	; 0x0a
     dee:	21 30       	cpi	r18, 0x01	; 1
     df0:	31 05       	cpc	r19, r1
     df2:	09 f0       	breq	.+2      	; 0xdf6 <DIO_u8SetPinDirection+0x10e>
     df4:	99 c0       	rjmp	.+306    	; 0xf28 <DIO_u8SetPinDirection+0x240>
				{
					case DIO_u8_OUTPUT:SET_BIT(DIO_u8_DDRB_REG,Copy_u8PinId);break;
     df6:	a7 e3       	ldi	r26, 0x37	; 55
     df8:	b0 e0       	ldi	r27, 0x00	; 0
     dfa:	e7 e3       	ldi	r30, 0x37	; 55
     dfc:	f0 e0       	ldi	r31, 0x00	; 0
     dfe:	80 81       	ld	r24, Z
     e00:	48 2f       	mov	r20, r24
     e02:	8b 81       	ldd	r24, Y+3	; 0x03
     e04:	28 2f       	mov	r18, r24
     e06:	30 e0       	ldi	r19, 0x00	; 0
     e08:	81 e0       	ldi	r24, 0x01	; 1
     e0a:	90 e0       	ldi	r25, 0x00	; 0
     e0c:	02 2e       	mov	r0, r18
     e0e:	02 c0       	rjmp	.+4      	; 0xe14 <DIO_u8SetPinDirection+0x12c>
     e10:	88 0f       	add	r24, r24
     e12:	99 1f       	adc	r25, r25
     e14:	0a 94       	dec	r0
     e16:	e2 f7       	brpl	.-8      	; 0xe10 <DIO_u8SetPinDirection+0x128>
     e18:	84 2b       	or	r24, r20
     e1a:	8c 93       	st	X, r24
     e1c:	85 c0       	rjmp	.+266    	; 0xf28 <DIO_u8SetPinDirection+0x240>
					case DIO_u8_INPUT: CLR_BIT(DIO_u8_DDRB_REG,Copy_u8PinId);break;
     e1e:	a7 e3       	ldi	r26, 0x37	; 55
     e20:	b0 e0       	ldi	r27, 0x00	; 0
     e22:	e7 e3       	ldi	r30, 0x37	; 55
     e24:	f0 e0       	ldi	r31, 0x00	; 0
     e26:	80 81       	ld	r24, Z
     e28:	48 2f       	mov	r20, r24
     e2a:	8b 81       	ldd	r24, Y+3	; 0x03
     e2c:	28 2f       	mov	r18, r24
     e2e:	30 e0       	ldi	r19, 0x00	; 0
     e30:	81 e0       	ldi	r24, 0x01	; 1
     e32:	90 e0       	ldi	r25, 0x00	; 0
     e34:	02 2e       	mov	r0, r18
     e36:	02 c0       	rjmp	.+4      	; 0xe3c <DIO_u8SetPinDirection+0x154>
     e38:	88 0f       	add	r24, r24
     e3a:	99 1f       	adc	r25, r25
     e3c:	0a 94       	dec	r0
     e3e:	e2 f7       	brpl	.-8      	; 0xe38 <DIO_u8SetPinDirection+0x150>
     e40:	80 95       	com	r24
     e42:	84 23       	and	r24, r20
     e44:	8c 93       	st	X, r24
     e46:	70 c0       	rjmp	.+224    	; 0xf28 <DIO_u8SetPinDirection+0x240>
				}
			break;
			case DIO_u8_PORTC:
				switch (Copy_u8PinDirection)
     e48:	8c 81       	ldd	r24, Y+4	; 0x04
     e4a:	28 2f       	mov	r18, r24
     e4c:	30 e0       	ldi	r19, 0x00	; 0
     e4e:	38 87       	std	Y+8, r19	; 0x08
     e50:	2f 83       	std	Y+7, r18	; 0x07
     e52:	8f 81       	ldd	r24, Y+7	; 0x07
     e54:	98 85       	ldd	r25, Y+8	; 0x08
     e56:	00 97       	sbiw	r24, 0x00	; 0
     e58:	d1 f0       	breq	.+52     	; 0xe8e <DIO_u8SetPinDirection+0x1a6>
     e5a:	2f 81       	ldd	r18, Y+7	; 0x07
     e5c:	38 85       	ldd	r19, Y+8	; 0x08
     e5e:	21 30       	cpi	r18, 0x01	; 1
     e60:	31 05       	cpc	r19, r1
     e62:	09 f0       	breq	.+2      	; 0xe66 <DIO_u8SetPinDirection+0x17e>
     e64:	61 c0       	rjmp	.+194    	; 0xf28 <DIO_u8SetPinDirection+0x240>
				{
					case DIO_u8_OUTPUT:SET_BIT(DIO_u8_DDRC_REG,Copy_u8PinId);break;
     e66:	a4 e3       	ldi	r26, 0x34	; 52
     e68:	b0 e0       	ldi	r27, 0x00	; 0
     e6a:	e4 e3       	ldi	r30, 0x34	; 52
     e6c:	f0 e0       	ldi	r31, 0x00	; 0
     e6e:	80 81       	ld	r24, Z
     e70:	48 2f       	mov	r20, r24
     e72:	8b 81       	ldd	r24, Y+3	; 0x03
     e74:	28 2f       	mov	r18, r24
     e76:	30 e0       	ldi	r19, 0x00	; 0
     e78:	81 e0       	ldi	r24, 0x01	; 1
     e7a:	90 e0       	ldi	r25, 0x00	; 0
     e7c:	02 2e       	mov	r0, r18
     e7e:	02 c0       	rjmp	.+4      	; 0xe84 <DIO_u8SetPinDirection+0x19c>
     e80:	88 0f       	add	r24, r24
     e82:	99 1f       	adc	r25, r25
     e84:	0a 94       	dec	r0
     e86:	e2 f7       	brpl	.-8      	; 0xe80 <DIO_u8SetPinDirection+0x198>
     e88:	84 2b       	or	r24, r20
     e8a:	8c 93       	st	X, r24
     e8c:	4d c0       	rjmp	.+154    	; 0xf28 <DIO_u8SetPinDirection+0x240>
					case DIO_u8_INPUT: CLR_BIT(DIO_u8_DDRC_REG,Copy_u8PinId);break;
     e8e:	a4 e3       	ldi	r26, 0x34	; 52
     e90:	b0 e0       	ldi	r27, 0x00	; 0
     e92:	e4 e3       	ldi	r30, 0x34	; 52
     e94:	f0 e0       	ldi	r31, 0x00	; 0
     e96:	80 81       	ld	r24, Z
     e98:	48 2f       	mov	r20, r24
     e9a:	8b 81       	ldd	r24, Y+3	; 0x03
     e9c:	28 2f       	mov	r18, r24
     e9e:	30 e0       	ldi	r19, 0x00	; 0
     ea0:	81 e0       	ldi	r24, 0x01	; 1
     ea2:	90 e0       	ldi	r25, 0x00	; 0
     ea4:	02 2e       	mov	r0, r18
     ea6:	02 c0       	rjmp	.+4      	; 0xeac <DIO_u8SetPinDirection+0x1c4>
     ea8:	88 0f       	add	r24, r24
     eaa:	99 1f       	adc	r25, r25
     eac:	0a 94       	dec	r0
     eae:	e2 f7       	brpl	.-8      	; 0xea8 <DIO_u8SetPinDirection+0x1c0>
     eb0:	80 95       	com	r24
     eb2:	84 23       	and	r24, r20
     eb4:	8c 93       	st	X, r24
     eb6:	38 c0       	rjmp	.+112    	; 0xf28 <DIO_u8SetPinDirection+0x240>
				}
			break;
			case DIO_u8_PORTD:
				switch (Copy_u8PinDirection)
     eb8:	8c 81       	ldd	r24, Y+4	; 0x04
     eba:	28 2f       	mov	r18, r24
     ebc:	30 e0       	ldi	r19, 0x00	; 0
     ebe:	3e 83       	std	Y+6, r19	; 0x06
     ec0:	2d 83       	std	Y+5, r18	; 0x05
     ec2:	8d 81       	ldd	r24, Y+5	; 0x05
     ec4:	9e 81       	ldd	r25, Y+6	; 0x06
     ec6:	00 97       	sbiw	r24, 0x00	; 0
     ec8:	c9 f0       	breq	.+50     	; 0xefc <DIO_u8SetPinDirection+0x214>
     eca:	2d 81       	ldd	r18, Y+5	; 0x05
     ecc:	3e 81       	ldd	r19, Y+6	; 0x06
     ece:	21 30       	cpi	r18, 0x01	; 1
     ed0:	31 05       	cpc	r19, r1
     ed2:	51 f5       	brne	.+84     	; 0xf28 <DIO_u8SetPinDirection+0x240>
				{
					case DIO_u8_OUTPUT:SET_BIT(DIO_u8_DDRD_REG,Copy_u8PinId);break;
     ed4:	a1 e3       	ldi	r26, 0x31	; 49
     ed6:	b0 e0       	ldi	r27, 0x00	; 0
     ed8:	e1 e3       	ldi	r30, 0x31	; 49
     eda:	f0 e0       	ldi	r31, 0x00	; 0
     edc:	80 81       	ld	r24, Z
     ede:	48 2f       	mov	r20, r24
     ee0:	8b 81       	ldd	r24, Y+3	; 0x03
     ee2:	28 2f       	mov	r18, r24
     ee4:	30 e0       	ldi	r19, 0x00	; 0
     ee6:	81 e0       	ldi	r24, 0x01	; 1
     ee8:	90 e0       	ldi	r25, 0x00	; 0
     eea:	02 2e       	mov	r0, r18
     eec:	02 c0       	rjmp	.+4      	; 0xef2 <DIO_u8SetPinDirection+0x20a>
     eee:	88 0f       	add	r24, r24
     ef0:	99 1f       	adc	r25, r25
     ef2:	0a 94       	dec	r0
     ef4:	e2 f7       	brpl	.-8      	; 0xeee <DIO_u8SetPinDirection+0x206>
     ef6:	84 2b       	or	r24, r20
     ef8:	8c 93       	st	X, r24
     efa:	16 c0       	rjmp	.+44     	; 0xf28 <DIO_u8SetPinDirection+0x240>
					case DIO_u8_INPUT: CLR_BIT(DIO_u8_DDRD_REG,Copy_u8PinId);break;
     efc:	a1 e3       	ldi	r26, 0x31	; 49
     efe:	b0 e0       	ldi	r27, 0x00	; 0
     f00:	e1 e3       	ldi	r30, 0x31	; 49
     f02:	f0 e0       	ldi	r31, 0x00	; 0
     f04:	80 81       	ld	r24, Z
     f06:	48 2f       	mov	r20, r24
     f08:	8b 81       	ldd	r24, Y+3	; 0x03
     f0a:	28 2f       	mov	r18, r24
     f0c:	30 e0       	ldi	r19, 0x00	; 0
     f0e:	81 e0       	ldi	r24, 0x01	; 1
     f10:	90 e0       	ldi	r25, 0x00	; 0
     f12:	02 2e       	mov	r0, r18
     f14:	02 c0       	rjmp	.+4      	; 0xf1a <DIO_u8SetPinDirection+0x232>
     f16:	88 0f       	add	r24, r24
     f18:	99 1f       	adc	r25, r25
     f1a:	0a 94       	dec	r0
     f1c:	e2 f7       	brpl	.-8      	; 0xf16 <DIO_u8SetPinDirection+0x22e>
     f1e:	80 95       	com	r24
     f20:	84 23       	and	r24, r20
     f22:	8c 93       	st	X, r24
     f24:	01 c0       	rjmp	.+2      	; 0xf28 <DIO_u8SetPinDirection+0x240>
			break;			
		}
	}
	else
	{
		Local_u8ErrorState = STD_TYPES_NOK;
     f26:	19 82       	std	Y+1, r1	; 0x01
	}
	
	return Local_u8ErrorState;
     f28:	89 81       	ldd	r24, Y+1	; 0x01
}
     f2a:	2e 96       	adiw	r28, 0x0e	; 14
     f2c:	0f b6       	in	r0, 0x3f	; 63
     f2e:	f8 94       	cli
     f30:	de bf       	out	0x3e, r29	; 62
     f32:	0f be       	out	0x3f, r0	; 63
     f34:	cd bf       	out	0x3d, r28	; 61
     f36:	cf 91       	pop	r28
     f38:	df 91       	pop	r29
     f3a:	08 95       	ret

00000f3c <DIO_u8SetPinValue>:

u8  DIO_u8SetPinValue     (u8 Copy_u8PortId, u8 Copy_u8PinId ,u8 Copy_u8PinValue)
{
     f3c:	df 93       	push	r29
     f3e:	cf 93       	push	r28
     f40:	cd b7       	in	r28, 0x3d	; 61
     f42:	de b7       	in	r29, 0x3e	; 62
     f44:	2e 97       	sbiw	r28, 0x0e	; 14
     f46:	0f b6       	in	r0, 0x3f	; 63
     f48:	f8 94       	cli
     f4a:	de bf       	out	0x3e, r29	; 62
     f4c:	0f be       	out	0x3f, r0	; 63
     f4e:	cd bf       	out	0x3d, r28	; 61
     f50:	8a 83       	std	Y+2, r24	; 0x02
     f52:	6b 83       	std	Y+3, r22	; 0x03
     f54:	4c 83       	std	Y+4, r20	; 0x04
	u8 Local_u8ErrorState = STD_TYPES_OK;
     f56:	81 e0       	ldi	r24, 0x01	; 1
     f58:	89 83       	std	Y+1, r24	; 0x01
	if(Copy_u8PinId <= DIO_u8_PIN7)
     f5a:	8b 81       	ldd	r24, Y+3	; 0x03
     f5c:	88 30       	cpi	r24, 0x08	; 8
     f5e:	08 f0       	brcs	.+2      	; 0xf62 <DIO_u8SetPinValue+0x26>
     f60:	08 c1       	rjmp	.+528    	; 0x1172 <DIO_u8SetPinValue+0x236>
	{
		switch (Copy_u8PortId)
     f62:	8a 81       	ldd	r24, Y+2	; 0x02
     f64:	28 2f       	mov	r18, r24
     f66:	30 e0       	ldi	r19, 0x00	; 0
     f68:	3e 87       	std	Y+14, r19	; 0x0e
     f6a:	2d 87       	std	Y+13, r18	; 0x0d
     f6c:	8d 85       	ldd	r24, Y+13	; 0x0d
     f6e:	9e 85       	ldd	r25, Y+14	; 0x0e
     f70:	81 30       	cpi	r24, 0x01	; 1
     f72:	91 05       	cpc	r25, r1
     f74:	09 f4       	brne	.+2      	; 0xf78 <DIO_u8SetPinValue+0x3c>
     f76:	50 c0       	rjmp	.+160    	; 0x1018 <DIO_u8SetPinValue+0xdc>
     f78:	2d 85       	ldd	r18, Y+13	; 0x0d
     f7a:	3e 85       	ldd	r19, Y+14	; 0x0e
     f7c:	22 30       	cpi	r18, 0x02	; 2
     f7e:	31 05       	cpc	r19, r1
     f80:	2c f4       	brge	.+10     	; 0xf8c <DIO_u8SetPinValue+0x50>
     f82:	8d 85       	ldd	r24, Y+13	; 0x0d
     f84:	9e 85       	ldd	r25, Y+14	; 0x0e
     f86:	00 97       	sbiw	r24, 0x00	; 0
     f88:	71 f0       	breq	.+28     	; 0xfa6 <DIO_u8SetPinValue+0x6a>
     f8a:	f1 c0       	rjmp	.+482    	; 0x116e <DIO_u8SetPinValue+0x232>
     f8c:	2d 85       	ldd	r18, Y+13	; 0x0d
     f8e:	3e 85       	ldd	r19, Y+14	; 0x0e
     f90:	22 30       	cpi	r18, 0x02	; 2
     f92:	31 05       	cpc	r19, r1
     f94:	09 f4       	brne	.+2      	; 0xf98 <DIO_u8SetPinValue+0x5c>
     f96:	79 c0       	rjmp	.+242    	; 0x108a <DIO_u8SetPinValue+0x14e>
     f98:	8d 85       	ldd	r24, Y+13	; 0x0d
     f9a:	9e 85       	ldd	r25, Y+14	; 0x0e
     f9c:	83 30       	cpi	r24, 0x03	; 3
     f9e:	91 05       	cpc	r25, r1
     fa0:	09 f4       	brne	.+2      	; 0xfa4 <DIO_u8SetPinValue+0x68>
     fa2:	ac c0       	rjmp	.+344    	; 0x10fc <DIO_u8SetPinValue+0x1c0>
     fa4:	e4 c0       	rjmp	.+456    	; 0x116e <DIO_u8SetPinValue+0x232>
		{
			case DIO_u8_PORTA:
				switch (Copy_u8PinValue)
     fa6:	8c 81       	ldd	r24, Y+4	; 0x04
     fa8:	28 2f       	mov	r18, r24
     faa:	30 e0       	ldi	r19, 0x00	; 0
     fac:	3c 87       	std	Y+12, r19	; 0x0c
     fae:	2b 87       	std	Y+11, r18	; 0x0b
     fb0:	8b 85       	ldd	r24, Y+11	; 0x0b
     fb2:	9c 85       	ldd	r25, Y+12	; 0x0c
     fb4:	00 97       	sbiw	r24, 0x00	; 0
     fb6:	c9 f0       	breq	.+50     	; 0xfea <DIO_u8SetPinValue+0xae>
     fb8:	2b 85       	ldd	r18, Y+11	; 0x0b
     fba:	3c 85       	ldd	r19, Y+12	; 0x0c
     fbc:	21 30       	cpi	r18, 0x01	; 1
     fbe:	31 05       	cpc	r19, r1
     fc0:	49 f5       	brne	.+82     	; 0x1014 <DIO_u8SetPinValue+0xd8>
				{
					case DIO_u8_HIGH:SET_BIT(DIO_u8_PORTA_REG,Copy_u8PinId);break;
     fc2:	ab e3       	ldi	r26, 0x3B	; 59
     fc4:	b0 e0       	ldi	r27, 0x00	; 0
     fc6:	eb e3       	ldi	r30, 0x3B	; 59
     fc8:	f0 e0       	ldi	r31, 0x00	; 0
     fca:	80 81       	ld	r24, Z
     fcc:	48 2f       	mov	r20, r24
     fce:	8b 81       	ldd	r24, Y+3	; 0x03
     fd0:	28 2f       	mov	r18, r24
     fd2:	30 e0       	ldi	r19, 0x00	; 0
     fd4:	81 e0       	ldi	r24, 0x01	; 1
     fd6:	90 e0       	ldi	r25, 0x00	; 0
     fd8:	02 2e       	mov	r0, r18
     fda:	02 c0       	rjmp	.+4      	; 0xfe0 <DIO_u8SetPinValue+0xa4>
     fdc:	88 0f       	add	r24, r24
     fde:	99 1f       	adc	r25, r25
     fe0:	0a 94       	dec	r0
     fe2:	e2 f7       	brpl	.-8      	; 0xfdc <DIO_u8SetPinValue+0xa0>
     fe4:	84 2b       	or	r24, r20
     fe6:	8c 93       	st	X, r24
     fe8:	c5 c0       	rjmp	.+394    	; 0x1174 <DIO_u8SetPinValue+0x238>
					case DIO_u8_LOW: CLR_BIT(DIO_u8_PORTA_REG,Copy_u8PinId);break;
     fea:	ab e3       	ldi	r26, 0x3B	; 59
     fec:	b0 e0       	ldi	r27, 0x00	; 0
     fee:	eb e3       	ldi	r30, 0x3B	; 59
     ff0:	f0 e0       	ldi	r31, 0x00	; 0
     ff2:	80 81       	ld	r24, Z
     ff4:	48 2f       	mov	r20, r24
     ff6:	8b 81       	ldd	r24, Y+3	; 0x03
     ff8:	28 2f       	mov	r18, r24
     ffa:	30 e0       	ldi	r19, 0x00	; 0
     ffc:	81 e0       	ldi	r24, 0x01	; 1
     ffe:	90 e0       	ldi	r25, 0x00	; 0
    1000:	02 2e       	mov	r0, r18
    1002:	02 c0       	rjmp	.+4      	; 0x1008 <DIO_u8SetPinValue+0xcc>
    1004:	88 0f       	add	r24, r24
    1006:	99 1f       	adc	r25, r25
    1008:	0a 94       	dec	r0
    100a:	e2 f7       	brpl	.-8      	; 0x1004 <DIO_u8SetPinValue+0xc8>
    100c:	80 95       	com	r24
    100e:	84 23       	and	r24, r20
    1010:	8c 93       	st	X, r24
    1012:	b0 c0       	rjmp	.+352    	; 0x1174 <DIO_u8SetPinValue+0x238>
					default : Local_u8ErrorState = STD_TYPES_NOK;
    1014:	19 82       	std	Y+1, r1	; 0x01
    1016:	ae c0       	rjmp	.+348    	; 0x1174 <DIO_u8SetPinValue+0x238>
				}
			break;
			case DIO_u8_PORTB:
				switch (Copy_u8PinValue)
    1018:	8c 81       	ldd	r24, Y+4	; 0x04
    101a:	28 2f       	mov	r18, r24
    101c:	30 e0       	ldi	r19, 0x00	; 0
    101e:	3a 87       	std	Y+10, r19	; 0x0a
    1020:	29 87       	std	Y+9, r18	; 0x09
    1022:	89 85       	ldd	r24, Y+9	; 0x09
    1024:	9a 85       	ldd	r25, Y+10	; 0x0a
    1026:	00 97       	sbiw	r24, 0x00	; 0
    1028:	c9 f0       	breq	.+50     	; 0x105c <DIO_u8SetPinValue+0x120>
    102a:	29 85       	ldd	r18, Y+9	; 0x09
    102c:	3a 85       	ldd	r19, Y+10	; 0x0a
    102e:	21 30       	cpi	r18, 0x01	; 1
    1030:	31 05       	cpc	r19, r1
    1032:	49 f5       	brne	.+82     	; 0x1086 <DIO_u8SetPinValue+0x14a>
				{
					case DIO_u8_HIGH:SET_BIT(DIO_u8_PORTB_REG,Copy_u8PinId);break;
    1034:	a8 e3       	ldi	r26, 0x38	; 56
    1036:	b0 e0       	ldi	r27, 0x00	; 0
    1038:	e8 e3       	ldi	r30, 0x38	; 56
    103a:	f0 e0       	ldi	r31, 0x00	; 0
    103c:	80 81       	ld	r24, Z
    103e:	48 2f       	mov	r20, r24
    1040:	8b 81       	ldd	r24, Y+3	; 0x03
    1042:	28 2f       	mov	r18, r24
    1044:	30 e0       	ldi	r19, 0x00	; 0
    1046:	81 e0       	ldi	r24, 0x01	; 1
    1048:	90 e0       	ldi	r25, 0x00	; 0
    104a:	02 2e       	mov	r0, r18
    104c:	02 c0       	rjmp	.+4      	; 0x1052 <DIO_u8SetPinValue+0x116>
    104e:	88 0f       	add	r24, r24
    1050:	99 1f       	adc	r25, r25
    1052:	0a 94       	dec	r0
    1054:	e2 f7       	brpl	.-8      	; 0x104e <DIO_u8SetPinValue+0x112>
    1056:	84 2b       	or	r24, r20
    1058:	8c 93       	st	X, r24
    105a:	8c c0       	rjmp	.+280    	; 0x1174 <DIO_u8SetPinValue+0x238>
					case DIO_u8_LOW: CLR_BIT(DIO_u8_PORTB_REG,Copy_u8PinId);break;
    105c:	a8 e3       	ldi	r26, 0x38	; 56
    105e:	b0 e0       	ldi	r27, 0x00	; 0
    1060:	e8 e3       	ldi	r30, 0x38	; 56
    1062:	f0 e0       	ldi	r31, 0x00	; 0
    1064:	80 81       	ld	r24, Z
    1066:	48 2f       	mov	r20, r24
    1068:	8b 81       	ldd	r24, Y+3	; 0x03
    106a:	28 2f       	mov	r18, r24
    106c:	30 e0       	ldi	r19, 0x00	; 0
    106e:	81 e0       	ldi	r24, 0x01	; 1
    1070:	90 e0       	ldi	r25, 0x00	; 0
    1072:	02 2e       	mov	r0, r18
    1074:	02 c0       	rjmp	.+4      	; 0x107a <DIO_u8SetPinValue+0x13e>
    1076:	88 0f       	add	r24, r24
    1078:	99 1f       	adc	r25, r25
    107a:	0a 94       	dec	r0
    107c:	e2 f7       	brpl	.-8      	; 0x1076 <DIO_u8SetPinValue+0x13a>
    107e:	80 95       	com	r24
    1080:	84 23       	and	r24, r20
    1082:	8c 93       	st	X, r24
    1084:	77 c0       	rjmp	.+238    	; 0x1174 <DIO_u8SetPinValue+0x238>
					default : Local_u8ErrorState = STD_TYPES_NOK;
    1086:	19 82       	std	Y+1, r1	; 0x01
    1088:	75 c0       	rjmp	.+234    	; 0x1174 <DIO_u8SetPinValue+0x238>
				}		
			break;
			case DIO_u8_PORTC:
				switch (Copy_u8PinValue)
    108a:	8c 81       	ldd	r24, Y+4	; 0x04
    108c:	28 2f       	mov	r18, r24
    108e:	30 e0       	ldi	r19, 0x00	; 0
    1090:	38 87       	std	Y+8, r19	; 0x08
    1092:	2f 83       	std	Y+7, r18	; 0x07
    1094:	8f 81       	ldd	r24, Y+7	; 0x07
    1096:	98 85       	ldd	r25, Y+8	; 0x08
    1098:	00 97       	sbiw	r24, 0x00	; 0
    109a:	c9 f0       	breq	.+50     	; 0x10ce <DIO_u8SetPinValue+0x192>
    109c:	2f 81       	ldd	r18, Y+7	; 0x07
    109e:	38 85       	ldd	r19, Y+8	; 0x08
    10a0:	21 30       	cpi	r18, 0x01	; 1
    10a2:	31 05       	cpc	r19, r1
    10a4:	49 f5       	brne	.+82     	; 0x10f8 <DIO_u8SetPinValue+0x1bc>
				{
					case DIO_u8_HIGH:SET_BIT(DIO_u8_PORTC_REG,Copy_u8PinId);break;
    10a6:	a5 e3       	ldi	r26, 0x35	; 53
    10a8:	b0 e0       	ldi	r27, 0x00	; 0
    10aa:	e5 e3       	ldi	r30, 0x35	; 53
    10ac:	f0 e0       	ldi	r31, 0x00	; 0
    10ae:	80 81       	ld	r24, Z
    10b0:	48 2f       	mov	r20, r24
    10b2:	8b 81       	ldd	r24, Y+3	; 0x03
    10b4:	28 2f       	mov	r18, r24
    10b6:	30 e0       	ldi	r19, 0x00	; 0
    10b8:	81 e0       	ldi	r24, 0x01	; 1
    10ba:	90 e0       	ldi	r25, 0x00	; 0
    10bc:	02 2e       	mov	r0, r18
    10be:	02 c0       	rjmp	.+4      	; 0x10c4 <DIO_u8SetPinValue+0x188>
    10c0:	88 0f       	add	r24, r24
    10c2:	99 1f       	adc	r25, r25
    10c4:	0a 94       	dec	r0
    10c6:	e2 f7       	brpl	.-8      	; 0x10c0 <DIO_u8SetPinValue+0x184>
    10c8:	84 2b       	or	r24, r20
    10ca:	8c 93       	st	X, r24
    10cc:	53 c0       	rjmp	.+166    	; 0x1174 <DIO_u8SetPinValue+0x238>
					case DIO_u8_LOW: CLR_BIT(DIO_u8_PORTC_REG,Copy_u8PinId);break;
    10ce:	a5 e3       	ldi	r26, 0x35	; 53
    10d0:	b0 e0       	ldi	r27, 0x00	; 0
    10d2:	e5 e3       	ldi	r30, 0x35	; 53
    10d4:	f0 e0       	ldi	r31, 0x00	; 0
    10d6:	80 81       	ld	r24, Z
    10d8:	48 2f       	mov	r20, r24
    10da:	8b 81       	ldd	r24, Y+3	; 0x03
    10dc:	28 2f       	mov	r18, r24
    10de:	30 e0       	ldi	r19, 0x00	; 0
    10e0:	81 e0       	ldi	r24, 0x01	; 1
    10e2:	90 e0       	ldi	r25, 0x00	; 0
    10e4:	02 2e       	mov	r0, r18
    10e6:	02 c0       	rjmp	.+4      	; 0x10ec <DIO_u8SetPinValue+0x1b0>
    10e8:	88 0f       	add	r24, r24
    10ea:	99 1f       	adc	r25, r25
    10ec:	0a 94       	dec	r0
    10ee:	e2 f7       	brpl	.-8      	; 0x10e8 <DIO_u8SetPinValue+0x1ac>
    10f0:	80 95       	com	r24
    10f2:	84 23       	and	r24, r20
    10f4:	8c 93       	st	X, r24
    10f6:	3e c0       	rjmp	.+124    	; 0x1174 <DIO_u8SetPinValue+0x238>
					default : Local_u8ErrorState = STD_TYPES_NOK;
    10f8:	19 82       	std	Y+1, r1	; 0x01
    10fa:	3c c0       	rjmp	.+120    	; 0x1174 <DIO_u8SetPinValue+0x238>
				}		
			break;
			case DIO_u8_PORTD:
				switch (Copy_u8PinValue)
    10fc:	8c 81       	ldd	r24, Y+4	; 0x04
    10fe:	28 2f       	mov	r18, r24
    1100:	30 e0       	ldi	r19, 0x00	; 0
    1102:	3e 83       	std	Y+6, r19	; 0x06
    1104:	2d 83       	std	Y+5, r18	; 0x05
    1106:	8d 81       	ldd	r24, Y+5	; 0x05
    1108:	9e 81       	ldd	r25, Y+6	; 0x06
    110a:	00 97       	sbiw	r24, 0x00	; 0
    110c:	c9 f0       	breq	.+50     	; 0x1140 <DIO_u8SetPinValue+0x204>
    110e:	2d 81       	ldd	r18, Y+5	; 0x05
    1110:	3e 81       	ldd	r19, Y+6	; 0x06
    1112:	21 30       	cpi	r18, 0x01	; 1
    1114:	31 05       	cpc	r19, r1
    1116:	49 f5       	brne	.+82     	; 0x116a <DIO_u8SetPinValue+0x22e>
				{
					case DIO_u8_HIGH:SET_BIT(DIO_u8_PORTD_REG,Copy_u8PinId);break;
    1118:	a2 e3       	ldi	r26, 0x32	; 50
    111a:	b0 e0       	ldi	r27, 0x00	; 0
    111c:	e2 e3       	ldi	r30, 0x32	; 50
    111e:	f0 e0       	ldi	r31, 0x00	; 0
    1120:	80 81       	ld	r24, Z
    1122:	48 2f       	mov	r20, r24
    1124:	8b 81       	ldd	r24, Y+3	; 0x03
    1126:	28 2f       	mov	r18, r24
    1128:	30 e0       	ldi	r19, 0x00	; 0
    112a:	81 e0       	ldi	r24, 0x01	; 1
    112c:	90 e0       	ldi	r25, 0x00	; 0
    112e:	02 2e       	mov	r0, r18
    1130:	02 c0       	rjmp	.+4      	; 0x1136 <DIO_u8SetPinValue+0x1fa>
    1132:	88 0f       	add	r24, r24
    1134:	99 1f       	adc	r25, r25
    1136:	0a 94       	dec	r0
    1138:	e2 f7       	brpl	.-8      	; 0x1132 <DIO_u8SetPinValue+0x1f6>
    113a:	84 2b       	or	r24, r20
    113c:	8c 93       	st	X, r24
    113e:	1a c0       	rjmp	.+52     	; 0x1174 <DIO_u8SetPinValue+0x238>
					case DIO_u8_LOW: CLR_BIT(DIO_u8_PORTD_REG,Copy_u8PinId);break;
    1140:	a2 e3       	ldi	r26, 0x32	; 50
    1142:	b0 e0       	ldi	r27, 0x00	; 0
    1144:	e2 e3       	ldi	r30, 0x32	; 50
    1146:	f0 e0       	ldi	r31, 0x00	; 0
    1148:	80 81       	ld	r24, Z
    114a:	48 2f       	mov	r20, r24
    114c:	8b 81       	ldd	r24, Y+3	; 0x03
    114e:	28 2f       	mov	r18, r24
    1150:	30 e0       	ldi	r19, 0x00	; 0
    1152:	81 e0       	ldi	r24, 0x01	; 1
    1154:	90 e0       	ldi	r25, 0x00	; 0
    1156:	02 2e       	mov	r0, r18
    1158:	02 c0       	rjmp	.+4      	; 0x115e <DIO_u8SetPinValue+0x222>
    115a:	88 0f       	add	r24, r24
    115c:	99 1f       	adc	r25, r25
    115e:	0a 94       	dec	r0
    1160:	e2 f7       	brpl	.-8      	; 0x115a <DIO_u8SetPinValue+0x21e>
    1162:	80 95       	com	r24
    1164:	84 23       	and	r24, r20
    1166:	8c 93       	st	X, r24
    1168:	05 c0       	rjmp	.+10     	; 0x1174 <DIO_u8SetPinValue+0x238>
					default : Local_u8ErrorState = STD_TYPES_NOK;
    116a:	19 82       	std	Y+1, r1	; 0x01
    116c:	03 c0       	rjmp	.+6      	; 0x1174 <DIO_u8SetPinValue+0x238>
				}		
			break;
			default :
				Local_u8ErrorState = STD_TYPES_NOK;
    116e:	19 82       	std	Y+1, r1	; 0x01
    1170:	01 c0       	rjmp	.+2      	; 0x1174 <DIO_u8SetPinValue+0x238>
		}
			
	}
	else
	{
		Local_u8ErrorState = STD_TYPES_NOK;
    1172:	19 82       	std	Y+1, r1	; 0x01
	}
	return Local_u8ErrorState;
    1174:	89 81       	ldd	r24, Y+1	; 0x01
}
    1176:	2e 96       	adiw	r28, 0x0e	; 14
    1178:	0f b6       	in	r0, 0x3f	; 63
    117a:	f8 94       	cli
    117c:	de bf       	out	0x3e, r29	; 62
    117e:	0f be       	out	0x3f, r0	; 63
    1180:	cd bf       	out	0x3d, r28	; 61
    1182:	cf 91       	pop	r28
    1184:	df 91       	pop	r29
    1186:	08 95       	ret

00001188 <DIO_u8GetPinValue>:

u8  DIO_u8GetPinValue     (u8 Copy_u8PortId, u8 Copy_u8PinId ,u8 * Copy_pu8ReturnedPinValue)
{
    1188:	df 93       	push	r29
    118a:	cf 93       	push	r28
    118c:	cd b7       	in	r28, 0x3d	; 61
    118e:	de b7       	in	r29, 0x3e	; 62
    1190:	28 97       	sbiw	r28, 0x08	; 8
    1192:	0f b6       	in	r0, 0x3f	; 63
    1194:	f8 94       	cli
    1196:	de bf       	out	0x3e, r29	; 62
    1198:	0f be       	out	0x3f, r0	; 63
    119a:	cd bf       	out	0x3d, r28	; 61
    119c:	8b 83       	std	Y+3, r24	; 0x03
    119e:	6c 83       	std	Y+4, r22	; 0x04
    11a0:	5e 83       	std	Y+6, r21	; 0x06
    11a2:	4d 83       	std	Y+5, r20	; 0x05
	u8 Local_u8ErrorState = STD_TYPES_OK;
    11a4:	81 e0       	ldi	r24, 0x01	; 1
    11a6:	8a 83       	std	Y+2, r24	; 0x02
	u8 Local_u8PinValue;
	if((Copy_u8PortId <= DIO_u8_PORTD) && (Copy_u8PinId <= DIO_u8_PIN7) && (Copy_pu8ReturnedPinValue != NULL))
    11a8:	8b 81       	ldd	r24, Y+3	; 0x03
    11aa:	84 30       	cpi	r24, 0x04	; 4
    11ac:	08 f0       	brcs	.+2      	; 0x11b0 <DIO_u8GetPinValue+0x28>
    11ae:	9f c0       	rjmp	.+318    	; 0x12ee <DIO_u8GetPinValue+0x166>
    11b0:	8c 81       	ldd	r24, Y+4	; 0x04
    11b2:	88 30       	cpi	r24, 0x08	; 8
    11b4:	08 f0       	brcs	.+2      	; 0x11b8 <DIO_u8GetPinValue+0x30>
    11b6:	9b c0       	rjmp	.+310    	; 0x12ee <DIO_u8GetPinValue+0x166>
    11b8:	8d 81       	ldd	r24, Y+5	; 0x05
    11ba:	9e 81       	ldd	r25, Y+6	; 0x06
    11bc:	00 97       	sbiw	r24, 0x00	; 0
    11be:	09 f4       	brne	.+2      	; 0x11c2 <DIO_u8GetPinValue+0x3a>
    11c0:	96 c0       	rjmp	.+300    	; 0x12ee <DIO_u8GetPinValue+0x166>
	{
		switch (Copy_u8PortId)
    11c2:	8b 81       	ldd	r24, Y+3	; 0x03
    11c4:	28 2f       	mov	r18, r24
    11c6:	30 e0       	ldi	r19, 0x00	; 0
    11c8:	38 87       	std	Y+8, r19	; 0x08
    11ca:	2f 83       	std	Y+7, r18	; 0x07
    11cc:	4f 81       	ldd	r20, Y+7	; 0x07
    11ce:	58 85       	ldd	r21, Y+8	; 0x08
    11d0:	41 30       	cpi	r20, 0x01	; 1
    11d2:	51 05       	cpc	r21, r1
    11d4:	a9 f1       	breq	.+106    	; 0x1240 <DIO_u8GetPinValue+0xb8>
    11d6:	8f 81       	ldd	r24, Y+7	; 0x07
    11d8:	98 85       	ldd	r25, Y+8	; 0x08
    11da:	82 30       	cpi	r24, 0x02	; 2
    11dc:	91 05       	cpc	r25, r1
    11de:	34 f4       	brge	.+12     	; 0x11ec <DIO_u8GetPinValue+0x64>
    11e0:	2f 81       	ldd	r18, Y+7	; 0x07
    11e2:	38 85       	ldd	r19, Y+8	; 0x08
    11e4:	21 15       	cp	r18, r1
    11e6:	31 05       	cpc	r19, r1
    11e8:	71 f0       	breq	.+28     	; 0x1206 <DIO_u8GetPinValue+0x7e>
    11ea:	82 c0       	rjmp	.+260    	; 0x12f0 <DIO_u8GetPinValue+0x168>
    11ec:	4f 81       	ldd	r20, Y+7	; 0x07
    11ee:	58 85       	ldd	r21, Y+8	; 0x08
    11f0:	42 30       	cpi	r20, 0x02	; 2
    11f2:	51 05       	cpc	r21, r1
    11f4:	09 f4       	brne	.+2      	; 0x11f8 <DIO_u8GetPinValue+0x70>
    11f6:	41 c0       	rjmp	.+130    	; 0x127a <DIO_u8GetPinValue+0xf2>
    11f8:	8f 81       	ldd	r24, Y+7	; 0x07
    11fa:	98 85       	ldd	r25, Y+8	; 0x08
    11fc:	83 30       	cpi	r24, 0x03	; 3
    11fe:	91 05       	cpc	r25, r1
    1200:	09 f4       	brne	.+2      	; 0x1204 <DIO_u8GetPinValue+0x7c>
    1202:	58 c0       	rjmp	.+176    	; 0x12b4 <DIO_u8GetPinValue+0x12c>
    1204:	75 c0       	rjmp	.+234    	; 0x12f0 <DIO_u8GetPinValue+0x168>
		{
			case DIO_u8_PORTA:
				Local_u8PinValue = GET_BIT(DIO_u8_PINA_REG,Copy_u8PinId);
    1206:	e9 e3       	ldi	r30, 0x39	; 57
    1208:	f0 e0       	ldi	r31, 0x00	; 0
    120a:	80 81       	ld	r24, Z
    120c:	28 2f       	mov	r18, r24
    120e:	30 e0       	ldi	r19, 0x00	; 0
    1210:	8c 81       	ldd	r24, Y+4	; 0x04
    1212:	88 2f       	mov	r24, r24
    1214:	90 e0       	ldi	r25, 0x00	; 0
    1216:	a9 01       	movw	r20, r18
    1218:	02 c0       	rjmp	.+4      	; 0x121e <DIO_u8GetPinValue+0x96>
    121a:	55 95       	asr	r21
    121c:	47 95       	ror	r20
    121e:	8a 95       	dec	r24
    1220:	e2 f7       	brpl	.-8      	; 0x121a <DIO_u8GetPinValue+0x92>
    1222:	ca 01       	movw	r24, r20
    1224:	81 70       	andi	r24, 0x01	; 1
    1226:	89 83       	std	Y+1, r24	; 0x01
				if(Local_u8PinValue == 0)
    1228:	89 81       	ldd	r24, Y+1	; 0x01
    122a:	88 23       	and	r24, r24
    122c:	21 f4       	brne	.+8      	; 0x1236 <DIO_u8GetPinValue+0xae>
				{
					*Copy_pu8ReturnedPinValue = DIO_u8_LOW;
    122e:	ed 81       	ldd	r30, Y+5	; 0x05
    1230:	fe 81       	ldd	r31, Y+6	; 0x06
    1232:	10 82       	st	Z, r1
    1234:	5d c0       	rjmp	.+186    	; 0x12f0 <DIO_u8GetPinValue+0x168>
				}	
				else
				{
					*Copy_pu8ReturnedPinValue = DIO_u8_HIGH;
    1236:	ed 81       	ldd	r30, Y+5	; 0x05
    1238:	fe 81       	ldd	r31, Y+6	; 0x06
    123a:	81 e0       	ldi	r24, 0x01	; 1
    123c:	80 83       	st	Z, r24
    123e:	58 c0       	rjmp	.+176    	; 0x12f0 <DIO_u8GetPinValue+0x168>
				}
			break;
			case DIO_u8_PORTB:
				Local_u8PinValue = GET_BIT(DIO_u8_PINB_REG,Copy_u8PinId);
    1240:	e6 e3       	ldi	r30, 0x36	; 54
    1242:	f0 e0       	ldi	r31, 0x00	; 0
    1244:	80 81       	ld	r24, Z
    1246:	28 2f       	mov	r18, r24
    1248:	30 e0       	ldi	r19, 0x00	; 0
    124a:	8c 81       	ldd	r24, Y+4	; 0x04
    124c:	88 2f       	mov	r24, r24
    124e:	90 e0       	ldi	r25, 0x00	; 0
    1250:	a9 01       	movw	r20, r18
    1252:	02 c0       	rjmp	.+4      	; 0x1258 <DIO_u8GetPinValue+0xd0>
    1254:	55 95       	asr	r21
    1256:	47 95       	ror	r20
    1258:	8a 95       	dec	r24
    125a:	e2 f7       	brpl	.-8      	; 0x1254 <DIO_u8GetPinValue+0xcc>
    125c:	ca 01       	movw	r24, r20
    125e:	81 70       	andi	r24, 0x01	; 1
    1260:	89 83       	std	Y+1, r24	; 0x01
				if(Local_u8PinValue == 0)
    1262:	89 81       	ldd	r24, Y+1	; 0x01
    1264:	88 23       	and	r24, r24
    1266:	21 f4       	brne	.+8      	; 0x1270 <DIO_u8GetPinValue+0xe8>
				{
					*Copy_pu8ReturnedPinValue = DIO_u8_LOW;
    1268:	ed 81       	ldd	r30, Y+5	; 0x05
    126a:	fe 81       	ldd	r31, Y+6	; 0x06
    126c:	10 82       	st	Z, r1
    126e:	40 c0       	rjmp	.+128    	; 0x12f0 <DIO_u8GetPinValue+0x168>
				}	
				else
				{
					*Copy_pu8ReturnedPinValue = DIO_u8_HIGH;
    1270:	ed 81       	ldd	r30, Y+5	; 0x05
    1272:	fe 81       	ldd	r31, Y+6	; 0x06
    1274:	81 e0       	ldi	r24, 0x01	; 1
    1276:	80 83       	st	Z, r24
    1278:	3b c0       	rjmp	.+118    	; 0x12f0 <DIO_u8GetPinValue+0x168>
				}
			break;
			case DIO_u8_PORTC:
				Local_u8PinValue = GET_BIT(DIO_u8_PINC_REG,Copy_u8PinId);
    127a:	e3 e3       	ldi	r30, 0x33	; 51
    127c:	f0 e0       	ldi	r31, 0x00	; 0
    127e:	80 81       	ld	r24, Z
    1280:	28 2f       	mov	r18, r24
    1282:	30 e0       	ldi	r19, 0x00	; 0
    1284:	8c 81       	ldd	r24, Y+4	; 0x04
    1286:	88 2f       	mov	r24, r24
    1288:	90 e0       	ldi	r25, 0x00	; 0
    128a:	a9 01       	movw	r20, r18
    128c:	02 c0       	rjmp	.+4      	; 0x1292 <DIO_u8GetPinValue+0x10a>
    128e:	55 95       	asr	r21
    1290:	47 95       	ror	r20
    1292:	8a 95       	dec	r24
    1294:	e2 f7       	brpl	.-8      	; 0x128e <DIO_u8GetPinValue+0x106>
    1296:	ca 01       	movw	r24, r20
    1298:	81 70       	andi	r24, 0x01	; 1
    129a:	89 83       	std	Y+1, r24	; 0x01
				if(Local_u8PinValue == 0)
    129c:	89 81       	ldd	r24, Y+1	; 0x01
    129e:	88 23       	and	r24, r24
    12a0:	21 f4       	brne	.+8      	; 0x12aa <DIO_u8GetPinValue+0x122>
				{
					*Copy_pu8ReturnedPinValue = DIO_u8_LOW;
    12a2:	ed 81       	ldd	r30, Y+5	; 0x05
    12a4:	fe 81       	ldd	r31, Y+6	; 0x06
    12a6:	10 82       	st	Z, r1
    12a8:	23 c0       	rjmp	.+70     	; 0x12f0 <DIO_u8GetPinValue+0x168>
				}	
				else
				{
					*Copy_pu8ReturnedPinValue = DIO_u8_HIGH;
    12aa:	ed 81       	ldd	r30, Y+5	; 0x05
    12ac:	fe 81       	ldd	r31, Y+6	; 0x06
    12ae:	81 e0       	ldi	r24, 0x01	; 1
    12b0:	80 83       	st	Z, r24
    12b2:	1e c0       	rjmp	.+60     	; 0x12f0 <DIO_u8GetPinValue+0x168>
				}
			break;
			case DIO_u8_PORTD:
				Local_u8PinValue = GET_BIT(DIO_u8_PIND_REG,Copy_u8PinId);
    12b4:	e0 e3       	ldi	r30, 0x30	; 48
    12b6:	f0 e0       	ldi	r31, 0x00	; 0
    12b8:	80 81       	ld	r24, Z
    12ba:	28 2f       	mov	r18, r24
    12bc:	30 e0       	ldi	r19, 0x00	; 0
    12be:	8c 81       	ldd	r24, Y+4	; 0x04
    12c0:	88 2f       	mov	r24, r24
    12c2:	90 e0       	ldi	r25, 0x00	; 0
    12c4:	a9 01       	movw	r20, r18
    12c6:	02 c0       	rjmp	.+4      	; 0x12cc <DIO_u8GetPinValue+0x144>
    12c8:	55 95       	asr	r21
    12ca:	47 95       	ror	r20
    12cc:	8a 95       	dec	r24
    12ce:	e2 f7       	brpl	.-8      	; 0x12c8 <DIO_u8GetPinValue+0x140>
    12d0:	ca 01       	movw	r24, r20
    12d2:	81 70       	andi	r24, 0x01	; 1
    12d4:	89 83       	std	Y+1, r24	; 0x01
				if(Local_u8PinValue == 0)
    12d6:	89 81       	ldd	r24, Y+1	; 0x01
    12d8:	88 23       	and	r24, r24
    12da:	21 f4       	brne	.+8      	; 0x12e4 <DIO_u8GetPinValue+0x15c>
				{
					*Copy_pu8ReturnedPinValue = DIO_u8_LOW;
    12dc:	ed 81       	ldd	r30, Y+5	; 0x05
    12de:	fe 81       	ldd	r31, Y+6	; 0x06
    12e0:	10 82       	st	Z, r1
    12e2:	06 c0       	rjmp	.+12     	; 0x12f0 <DIO_u8GetPinValue+0x168>
				}	
				else
				{
					*Copy_pu8ReturnedPinValue = DIO_u8_HIGH;
    12e4:	ed 81       	ldd	r30, Y+5	; 0x05
    12e6:	fe 81       	ldd	r31, Y+6	; 0x06
    12e8:	81 e0       	ldi	r24, 0x01	; 1
    12ea:	80 83       	st	Z, r24
    12ec:	01 c0       	rjmp	.+2      	; 0x12f0 <DIO_u8GetPinValue+0x168>
			break;
		}
	}
	else
	{
		Local_u8ErrorState = STD_TYPES_NOK;
    12ee:	1a 82       	std	Y+2, r1	; 0x02
	}
	return Local_u8ErrorState;
    12f0:	8a 81       	ldd	r24, Y+2	; 0x02
}
    12f2:	28 96       	adiw	r28, 0x08	; 8
    12f4:	0f b6       	in	r0, 0x3f	; 63
    12f6:	f8 94       	cli
    12f8:	de bf       	out	0x3e, r29	; 62
    12fa:	0f be       	out	0x3f, r0	; 63
    12fc:	cd bf       	out	0x3d, r28	; 61
    12fe:	cf 91       	pop	r28
    1300:	df 91       	pop	r29
    1302:	08 95       	ret

00001304 <DIO_u8SetPortDirection>:

u8  DIO_u8SetPortDirection(u8 Copy_u8PortId, u8 Copy_u8PortDirection)
{
    1304:	df 93       	push	r29
    1306:	cf 93       	push	r28
    1308:	cd b7       	in	r28, 0x3d	; 61
    130a:	de b7       	in	r29, 0x3e	; 62
    130c:	2d 97       	sbiw	r28, 0x0d	; 13
    130e:	0f b6       	in	r0, 0x3f	; 63
    1310:	f8 94       	cli
    1312:	de bf       	out	0x3e, r29	; 62
    1314:	0f be       	out	0x3f, r0	; 63
    1316:	cd bf       	out	0x3d, r28	; 61
    1318:	8a 83       	std	Y+2, r24	; 0x02
    131a:	6b 83       	std	Y+3, r22	; 0x03
	u8 Local_u8ErrorState = STD_TYPES_OK;
    131c:	81 e0       	ldi	r24, 0x01	; 1
    131e:	89 83       	std	Y+1, r24	; 0x01
	if((Copy_u8PortDirection == DIO_u8_OUTPUT) || (Copy_u8PortDirection == DIO_u8_INPUT))
    1320:	8b 81       	ldd	r24, Y+3	; 0x03
    1322:	81 30       	cpi	r24, 0x01	; 1
    1324:	21 f0       	breq	.+8      	; 0x132e <DIO_u8SetPortDirection+0x2a>
    1326:	8b 81       	ldd	r24, Y+3	; 0x03
    1328:	88 23       	and	r24, r24
    132a:	09 f0       	breq	.+2      	; 0x132e <DIO_u8SetPortDirection+0x2a>
    132c:	7f c0       	rjmp	.+254    	; 0x142c <DIO_u8SetPortDirection+0x128>
	{
		switch (Copy_u8PortId)
    132e:	8a 81       	ldd	r24, Y+2	; 0x02
    1330:	28 2f       	mov	r18, r24
    1332:	30 e0       	ldi	r19, 0x00	; 0
    1334:	3d 87       	std	Y+13, r19	; 0x0d
    1336:	2c 87       	std	Y+12, r18	; 0x0c
    1338:	8c 85       	ldd	r24, Y+12	; 0x0c
    133a:	9d 85       	ldd	r25, Y+13	; 0x0d
    133c:	81 30       	cpi	r24, 0x01	; 1
    133e:	91 05       	cpc	r25, r1
    1340:	71 f1       	breq	.+92     	; 0x139e <DIO_u8SetPortDirection+0x9a>
    1342:	2c 85       	ldd	r18, Y+12	; 0x0c
    1344:	3d 85       	ldd	r19, Y+13	; 0x0d
    1346:	22 30       	cpi	r18, 0x02	; 2
    1348:	31 05       	cpc	r19, r1
    134a:	2c f4       	brge	.+10     	; 0x1356 <DIO_u8SetPortDirection+0x52>
    134c:	8c 85       	ldd	r24, Y+12	; 0x0c
    134e:	9d 85       	ldd	r25, Y+13	; 0x0d
    1350:	00 97       	sbiw	r24, 0x00	; 0
    1352:	69 f0       	breq	.+26     	; 0x136e <DIO_u8SetPortDirection+0x6a>
    1354:	69 c0       	rjmp	.+210    	; 0x1428 <DIO_u8SetPortDirection+0x124>
    1356:	2c 85       	ldd	r18, Y+12	; 0x0c
    1358:	3d 85       	ldd	r19, Y+13	; 0x0d
    135a:	22 30       	cpi	r18, 0x02	; 2
    135c:	31 05       	cpc	r19, r1
    135e:	b1 f1       	breq	.+108    	; 0x13cc <DIO_u8SetPortDirection+0xc8>
    1360:	8c 85       	ldd	r24, Y+12	; 0x0c
    1362:	9d 85       	ldd	r25, Y+13	; 0x0d
    1364:	83 30       	cpi	r24, 0x03	; 3
    1366:	91 05       	cpc	r25, r1
    1368:	09 f4       	brne	.+2      	; 0x136c <DIO_u8SetPortDirection+0x68>
    136a:	47 c0       	rjmp	.+142    	; 0x13fa <DIO_u8SetPortDirection+0xf6>
    136c:	5d c0       	rjmp	.+186    	; 0x1428 <DIO_u8SetPortDirection+0x124>
		{
			case DIO_u8_PORTA:
				switch (Copy_u8PortDirection)
    136e:	8b 81       	ldd	r24, Y+3	; 0x03
    1370:	28 2f       	mov	r18, r24
    1372:	30 e0       	ldi	r19, 0x00	; 0
    1374:	3b 87       	std	Y+11, r19	; 0x0b
    1376:	2a 87       	std	Y+10, r18	; 0x0a
    1378:	8a 85       	ldd	r24, Y+10	; 0x0a
    137a:	9b 85       	ldd	r25, Y+11	; 0x0b
    137c:	00 97       	sbiw	r24, 0x00	; 0
    137e:	59 f0       	breq	.+22     	; 0x1396 <DIO_u8SetPortDirection+0x92>
    1380:	2a 85       	ldd	r18, Y+10	; 0x0a
    1382:	3b 85       	ldd	r19, Y+11	; 0x0b
    1384:	21 30       	cpi	r18, 0x01	; 1
    1386:	31 05       	cpc	r19, r1
    1388:	09 f0       	breq	.+2      	; 0x138c <DIO_u8SetPortDirection+0x88>
    138a:	51 c0       	rjmp	.+162    	; 0x142e <DIO_u8SetPortDirection+0x12a>
				{
					case DIO_u8_OUTPUT:DIO_u8_DDRA_REG = 0xff;break;
    138c:	ea e3       	ldi	r30, 0x3A	; 58
    138e:	f0 e0       	ldi	r31, 0x00	; 0
    1390:	8f ef       	ldi	r24, 0xFF	; 255
    1392:	80 83       	st	Z, r24
    1394:	4c c0       	rjmp	.+152    	; 0x142e <DIO_u8SetPortDirection+0x12a>
					case DIO_u8_INPUT :DIO_u8_DDRA_REG = 0x00;break;
    1396:	ea e3       	ldi	r30, 0x3A	; 58
    1398:	f0 e0       	ldi	r31, 0x00	; 0
    139a:	10 82       	st	Z, r1
    139c:	48 c0       	rjmp	.+144    	; 0x142e <DIO_u8SetPortDirection+0x12a>
				}
			break;
			case DIO_u8_PORTB:
				switch (Copy_u8PortDirection)
    139e:	8b 81       	ldd	r24, Y+3	; 0x03
    13a0:	28 2f       	mov	r18, r24
    13a2:	30 e0       	ldi	r19, 0x00	; 0
    13a4:	39 87       	std	Y+9, r19	; 0x09
    13a6:	28 87       	std	Y+8, r18	; 0x08
    13a8:	88 85       	ldd	r24, Y+8	; 0x08
    13aa:	99 85       	ldd	r25, Y+9	; 0x09
    13ac:	00 97       	sbiw	r24, 0x00	; 0
    13ae:	51 f0       	breq	.+20     	; 0x13c4 <DIO_u8SetPortDirection+0xc0>
    13b0:	28 85       	ldd	r18, Y+8	; 0x08
    13b2:	39 85       	ldd	r19, Y+9	; 0x09
    13b4:	21 30       	cpi	r18, 0x01	; 1
    13b6:	31 05       	cpc	r19, r1
    13b8:	d1 f5       	brne	.+116    	; 0x142e <DIO_u8SetPortDirection+0x12a>
				{
					case DIO_u8_OUTPUT:DIO_u8_DDRB_REG = 0xff;break;
    13ba:	e7 e3       	ldi	r30, 0x37	; 55
    13bc:	f0 e0       	ldi	r31, 0x00	; 0
    13be:	8f ef       	ldi	r24, 0xFF	; 255
    13c0:	80 83       	st	Z, r24
    13c2:	35 c0       	rjmp	.+106    	; 0x142e <DIO_u8SetPortDirection+0x12a>
					case DIO_u8_INPUT :DIO_u8_DDRB_REG = 0x00;break;
    13c4:	e7 e3       	ldi	r30, 0x37	; 55
    13c6:	f0 e0       	ldi	r31, 0x00	; 0
    13c8:	10 82       	st	Z, r1
    13ca:	31 c0       	rjmp	.+98     	; 0x142e <DIO_u8SetPortDirection+0x12a>
				}
			break;
			case DIO_u8_PORTC:
				switch (Copy_u8PortDirection)
    13cc:	8b 81       	ldd	r24, Y+3	; 0x03
    13ce:	28 2f       	mov	r18, r24
    13d0:	30 e0       	ldi	r19, 0x00	; 0
    13d2:	3f 83       	std	Y+7, r19	; 0x07
    13d4:	2e 83       	std	Y+6, r18	; 0x06
    13d6:	8e 81       	ldd	r24, Y+6	; 0x06
    13d8:	9f 81       	ldd	r25, Y+7	; 0x07
    13da:	00 97       	sbiw	r24, 0x00	; 0
    13dc:	51 f0       	breq	.+20     	; 0x13f2 <DIO_u8SetPortDirection+0xee>
    13de:	2e 81       	ldd	r18, Y+6	; 0x06
    13e0:	3f 81       	ldd	r19, Y+7	; 0x07
    13e2:	21 30       	cpi	r18, 0x01	; 1
    13e4:	31 05       	cpc	r19, r1
    13e6:	19 f5       	brne	.+70     	; 0x142e <DIO_u8SetPortDirection+0x12a>
				{
					case DIO_u8_OUTPUT:DIO_u8_DDRC_REG = 0xff;break;
    13e8:	e4 e3       	ldi	r30, 0x34	; 52
    13ea:	f0 e0       	ldi	r31, 0x00	; 0
    13ec:	8f ef       	ldi	r24, 0xFF	; 255
    13ee:	80 83       	st	Z, r24
    13f0:	1e c0       	rjmp	.+60     	; 0x142e <DIO_u8SetPortDirection+0x12a>
					case DIO_u8_INPUT :DIO_u8_DDRC_REG = 0x00;break;
    13f2:	e4 e3       	ldi	r30, 0x34	; 52
    13f4:	f0 e0       	ldi	r31, 0x00	; 0
    13f6:	10 82       	st	Z, r1
    13f8:	1a c0       	rjmp	.+52     	; 0x142e <DIO_u8SetPortDirection+0x12a>
				}
			break;
			case DIO_u8_PORTD:
				switch (Copy_u8PortDirection)
    13fa:	8b 81       	ldd	r24, Y+3	; 0x03
    13fc:	28 2f       	mov	r18, r24
    13fe:	30 e0       	ldi	r19, 0x00	; 0
    1400:	3d 83       	std	Y+5, r19	; 0x05
    1402:	2c 83       	std	Y+4, r18	; 0x04
    1404:	8c 81       	ldd	r24, Y+4	; 0x04
    1406:	9d 81       	ldd	r25, Y+5	; 0x05
    1408:	00 97       	sbiw	r24, 0x00	; 0
    140a:	51 f0       	breq	.+20     	; 0x1420 <DIO_u8SetPortDirection+0x11c>
    140c:	2c 81       	ldd	r18, Y+4	; 0x04
    140e:	3d 81       	ldd	r19, Y+5	; 0x05
    1410:	21 30       	cpi	r18, 0x01	; 1
    1412:	31 05       	cpc	r19, r1
    1414:	61 f4       	brne	.+24     	; 0x142e <DIO_u8SetPortDirection+0x12a>
				{
					case DIO_u8_OUTPUT:DIO_u8_DDRD_REG = 0xff;break;
    1416:	e1 e3       	ldi	r30, 0x31	; 49
    1418:	f0 e0       	ldi	r31, 0x00	; 0
    141a:	8f ef       	ldi	r24, 0xFF	; 255
    141c:	80 83       	st	Z, r24
    141e:	07 c0       	rjmp	.+14     	; 0x142e <DIO_u8SetPortDirection+0x12a>
					case DIO_u8_INPUT :DIO_u8_DDRD_REG = 0x00;break;
    1420:	e1 e3       	ldi	r30, 0x31	; 49
    1422:	f0 e0       	ldi	r31, 0x00	; 0
    1424:	10 82       	st	Z, r1
    1426:	03 c0       	rjmp	.+6      	; 0x142e <DIO_u8SetPortDirection+0x12a>
				}
			break;
			default :Local_u8ErrorState = STD_TYPES_NOK;
    1428:	19 82       	std	Y+1, r1	; 0x01
    142a:	01 c0       	rjmp	.+2      	; 0x142e <DIO_u8SetPortDirection+0x12a>
		}
	}
	else
	{
		Local_u8ErrorState = STD_TYPES_NOK;
    142c:	19 82       	std	Y+1, r1	; 0x01
	}
	return Local_u8ErrorState;
    142e:	89 81       	ldd	r24, Y+1	; 0x01
}
    1430:	2d 96       	adiw	r28, 0x0d	; 13
    1432:	0f b6       	in	r0, 0x3f	; 63
    1434:	f8 94       	cli
    1436:	de bf       	out	0x3e, r29	; 62
    1438:	0f be       	out	0x3f, r0	; 63
    143a:	cd bf       	out	0x3d, r28	; 61
    143c:	cf 91       	pop	r28
    143e:	df 91       	pop	r29
    1440:	08 95       	ret

00001442 <DIO_u8SetPortValue>:

u8  DIO_u8SetPortValue    (u8 Copy_u8PortId, u8 Copy_u8PortValue)
{
    1442:	df 93       	push	r29
    1444:	cf 93       	push	r28
    1446:	00 d0       	rcall	.+0      	; 0x1448 <DIO_u8SetPortValue+0x6>
    1448:	00 d0       	rcall	.+0      	; 0x144a <DIO_u8SetPortValue+0x8>
    144a:	0f 92       	push	r0
    144c:	cd b7       	in	r28, 0x3d	; 61
    144e:	de b7       	in	r29, 0x3e	; 62
    1450:	8a 83       	std	Y+2, r24	; 0x02
    1452:	6b 83       	std	Y+3, r22	; 0x03
	u8 Local_u8ErrorState = STD_TYPES_OK;
    1454:	81 e0       	ldi	r24, 0x01	; 1
    1456:	89 83       	std	Y+1, r24	; 0x01
	switch (Copy_u8PortId)
    1458:	8a 81       	ldd	r24, Y+2	; 0x02
    145a:	28 2f       	mov	r18, r24
    145c:	30 e0       	ldi	r19, 0x00	; 0
    145e:	3d 83       	std	Y+5, r19	; 0x05
    1460:	2c 83       	std	Y+4, r18	; 0x04
    1462:	8c 81       	ldd	r24, Y+4	; 0x04
    1464:	9d 81       	ldd	r25, Y+5	; 0x05
    1466:	81 30       	cpi	r24, 0x01	; 1
    1468:	91 05       	cpc	r25, r1
    146a:	d1 f0       	breq	.+52     	; 0x14a0 <DIO_u8SetPortValue+0x5e>
    146c:	2c 81       	ldd	r18, Y+4	; 0x04
    146e:	3d 81       	ldd	r19, Y+5	; 0x05
    1470:	22 30       	cpi	r18, 0x02	; 2
    1472:	31 05       	cpc	r19, r1
    1474:	2c f4       	brge	.+10     	; 0x1480 <DIO_u8SetPortValue+0x3e>
    1476:	8c 81       	ldd	r24, Y+4	; 0x04
    1478:	9d 81       	ldd	r25, Y+5	; 0x05
    147a:	00 97       	sbiw	r24, 0x00	; 0
    147c:	61 f0       	breq	.+24     	; 0x1496 <DIO_u8SetPortValue+0x54>
    147e:	1f c0       	rjmp	.+62     	; 0x14be <DIO_u8SetPortValue+0x7c>
    1480:	2c 81       	ldd	r18, Y+4	; 0x04
    1482:	3d 81       	ldd	r19, Y+5	; 0x05
    1484:	22 30       	cpi	r18, 0x02	; 2
    1486:	31 05       	cpc	r19, r1
    1488:	81 f0       	breq	.+32     	; 0x14aa <DIO_u8SetPortValue+0x68>
    148a:	8c 81       	ldd	r24, Y+4	; 0x04
    148c:	9d 81       	ldd	r25, Y+5	; 0x05
    148e:	83 30       	cpi	r24, 0x03	; 3
    1490:	91 05       	cpc	r25, r1
    1492:	81 f0       	breq	.+32     	; 0x14b4 <DIO_u8SetPortValue+0x72>
    1494:	14 c0       	rjmp	.+40     	; 0x14be <DIO_u8SetPortValue+0x7c>
	{
		case DIO_u8_PORTA:DIO_u8_PORTA_REG = Copy_u8PortValue;break;
    1496:	eb e3       	ldi	r30, 0x3B	; 59
    1498:	f0 e0       	ldi	r31, 0x00	; 0
    149a:	8b 81       	ldd	r24, Y+3	; 0x03
    149c:	80 83       	st	Z, r24
    149e:	10 c0       	rjmp	.+32     	; 0x14c0 <DIO_u8SetPortValue+0x7e>
		case DIO_u8_PORTB:DIO_u8_PORTB_REG = Copy_u8PortValue;break;
    14a0:	e8 e3       	ldi	r30, 0x38	; 56
    14a2:	f0 e0       	ldi	r31, 0x00	; 0
    14a4:	8b 81       	ldd	r24, Y+3	; 0x03
    14a6:	80 83       	st	Z, r24
    14a8:	0b c0       	rjmp	.+22     	; 0x14c0 <DIO_u8SetPortValue+0x7e>
		case DIO_u8_PORTC:DIO_u8_PORTC_REG = Copy_u8PortValue;break;
    14aa:	e5 e3       	ldi	r30, 0x35	; 53
    14ac:	f0 e0       	ldi	r31, 0x00	; 0
    14ae:	8b 81       	ldd	r24, Y+3	; 0x03
    14b0:	80 83       	st	Z, r24
    14b2:	06 c0       	rjmp	.+12     	; 0x14c0 <DIO_u8SetPortValue+0x7e>
		case DIO_u8_PORTD:DIO_u8_PORTD_REG = Copy_u8PortValue;break;
    14b4:	e2 e3       	ldi	r30, 0x32	; 50
    14b6:	f0 e0       	ldi	r31, 0x00	; 0
    14b8:	8b 81       	ldd	r24, Y+3	; 0x03
    14ba:	80 83       	st	Z, r24
    14bc:	01 c0       	rjmp	.+2      	; 0x14c0 <DIO_u8SetPortValue+0x7e>
		default : Local_u8ErrorState = STD_TYPES_NOK;
    14be:	19 82       	std	Y+1, r1	; 0x01
	}
	return Local_u8ErrorState;
    14c0:	89 81       	ldd	r24, Y+1	; 0x01
}
    14c2:	0f 90       	pop	r0
    14c4:	0f 90       	pop	r0
    14c6:	0f 90       	pop	r0
    14c8:	0f 90       	pop	r0
    14ca:	0f 90       	pop	r0
    14cc:	cf 91       	pop	r28
    14ce:	df 91       	pop	r29
    14d0:	08 95       	ret

000014d2 <DIO_u8GetPortValue>:

u8  DIO_u8GetPortValue    (u8 Copy_u8PortId, u8 * Copy_pu8ReturnedPortValue)
{
    14d2:	df 93       	push	r29
    14d4:	cf 93       	push	r28
    14d6:	00 d0       	rcall	.+0      	; 0x14d8 <DIO_u8GetPortValue+0x6>
    14d8:	00 d0       	rcall	.+0      	; 0x14da <DIO_u8GetPortValue+0x8>
    14da:	00 d0       	rcall	.+0      	; 0x14dc <DIO_u8GetPortValue+0xa>
    14dc:	cd b7       	in	r28, 0x3d	; 61
    14de:	de b7       	in	r29, 0x3e	; 62
    14e0:	8a 83       	std	Y+2, r24	; 0x02
    14e2:	7c 83       	std	Y+4, r23	; 0x04
    14e4:	6b 83       	std	Y+3, r22	; 0x03
	u8 Local_u8ErrorState = STD_TYPES_OK;
    14e6:	81 e0       	ldi	r24, 0x01	; 1
    14e8:	89 83       	std	Y+1, r24	; 0x01
	if( Copy_pu8ReturnedPortValue != NULL)
    14ea:	8b 81       	ldd	r24, Y+3	; 0x03
    14ec:	9c 81       	ldd	r25, Y+4	; 0x04
    14ee:	00 97       	sbiw	r24, 0x00	; 0
    14f0:	e9 f1       	breq	.+122    	; 0x156c <DIO_u8GetPortValue+0x9a>
	{
		switch (Copy_u8PortId)
    14f2:	8a 81       	ldd	r24, Y+2	; 0x02
    14f4:	28 2f       	mov	r18, r24
    14f6:	30 e0       	ldi	r19, 0x00	; 0
    14f8:	3e 83       	std	Y+6, r19	; 0x06
    14fa:	2d 83       	std	Y+5, r18	; 0x05
    14fc:	8d 81       	ldd	r24, Y+5	; 0x05
    14fe:	9e 81       	ldd	r25, Y+6	; 0x06
    1500:	81 30       	cpi	r24, 0x01	; 1
    1502:	91 05       	cpc	r25, r1
    1504:	e1 f0       	breq	.+56     	; 0x153e <DIO_u8GetPortValue+0x6c>
    1506:	2d 81       	ldd	r18, Y+5	; 0x05
    1508:	3e 81       	ldd	r19, Y+6	; 0x06
    150a:	22 30       	cpi	r18, 0x02	; 2
    150c:	31 05       	cpc	r19, r1
    150e:	2c f4       	brge	.+10     	; 0x151a <DIO_u8GetPortValue+0x48>
    1510:	8d 81       	ldd	r24, Y+5	; 0x05
    1512:	9e 81       	ldd	r25, Y+6	; 0x06
    1514:	00 97       	sbiw	r24, 0x00	; 0
    1516:	61 f0       	breq	.+24     	; 0x1530 <DIO_u8GetPortValue+0x5e>
    1518:	27 c0       	rjmp	.+78     	; 0x1568 <DIO_u8GetPortValue+0x96>
    151a:	2d 81       	ldd	r18, Y+5	; 0x05
    151c:	3e 81       	ldd	r19, Y+6	; 0x06
    151e:	22 30       	cpi	r18, 0x02	; 2
    1520:	31 05       	cpc	r19, r1
    1522:	a1 f0       	breq	.+40     	; 0x154c <DIO_u8GetPortValue+0x7a>
    1524:	8d 81       	ldd	r24, Y+5	; 0x05
    1526:	9e 81       	ldd	r25, Y+6	; 0x06
    1528:	83 30       	cpi	r24, 0x03	; 3
    152a:	91 05       	cpc	r25, r1
    152c:	b1 f0       	breq	.+44     	; 0x155a <DIO_u8GetPortValue+0x88>
    152e:	1c c0       	rjmp	.+56     	; 0x1568 <DIO_u8GetPortValue+0x96>
		{
			case DIO_u8_PORTA: *Copy_pu8ReturnedPortValue = DIO_u8_PINA_REG;break;
    1530:	e9 e3       	ldi	r30, 0x39	; 57
    1532:	f0 e0       	ldi	r31, 0x00	; 0
    1534:	80 81       	ld	r24, Z
    1536:	eb 81       	ldd	r30, Y+3	; 0x03
    1538:	fc 81       	ldd	r31, Y+4	; 0x04
    153a:	80 83       	st	Z, r24
    153c:	18 c0       	rjmp	.+48     	; 0x156e <DIO_u8GetPortValue+0x9c>
			case DIO_u8_PORTB: *Copy_pu8ReturnedPortValue = DIO_u8_PINB_REG;break;
    153e:	e6 e3       	ldi	r30, 0x36	; 54
    1540:	f0 e0       	ldi	r31, 0x00	; 0
    1542:	80 81       	ld	r24, Z
    1544:	eb 81       	ldd	r30, Y+3	; 0x03
    1546:	fc 81       	ldd	r31, Y+4	; 0x04
    1548:	80 83       	st	Z, r24
    154a:	11 c0       	rjmp	.+34     	; 0x156e <DIO_u8GetPortValue+0x9c>
			case DIO_u8_PORTC: *Copy_pu8ReturnedPortValue = DIO_u8_PINC_REG;break;
    154c:	e3 e3       	ldi	r30, 0x33	; 51
    154e:	f0 e0       	ldi	r31, 0x00	; 0
    1550:	80 81       	ld	r24, Z
    1552:	eb 81       	ldd	r30, Y+3	; 0x03
    1554:	fc 81       	ldd	r31, Y+4	; 0x04
    1556:	80 83       	st	Z, r24
    1558:	0a c0       	rjmp	.+20     	; 0x156e <DIO_u8GetPortValue+0x9c>
			case DIO_u8_PORTD: *Copy_pu8ReturnedPortValue = DIO_u8_PIND_REG;break;
    155a:	e0 e3       	ldi	r30, 0x30	; 48
    155c:	f0 e0       	ldi	r31, 0x00	; 0
    155e:	80 81       	ld	r24, Z
    1560:	eb 81       	ldd	r30, Y+3	; 0x03
    1562:	fc 81       	ldd	r31, Y+4	; 0x04
    1564:	80 83       	st	Z, r24
    1566:	03 c0       	rjmp	.+6      	; 0x156e <DIO_u8GetPortValue+0x9c>
			default : Local_u8ErrorState = STD_TYPES_NOK;
    1568:	19 82       	std	Y+1, r1	; 0x01
    156a:	01 c0       	rjmp	.+2      	; 0x156e <DIO_u8GetPortValue+0x9c>
		}
	}
	else
	{
		Local_u8ErrorState = STD_TYPES_NOK;
    156c:	19 82       	std	Y+1, r1	; 0x01
	}
	return Local_u8ErrorState;
    156e:	89 81       	ldd	r24, Y+1	; 0x01
    1570:	26 96       	adiw	r28, 0x06	; 6
    1572:	0f b6       	in	r0, 0x3f	; 63
    1574:	f8 94       	cli
    1576:	de bf       	out	0x3e, r29	; 62
    1578:	0f be       	out	0x3f, r0	; 63
    157a:	cd bf       	out	0x3d, r28	; 61
    157c:	cf 91       	pop	r28
    157e:	df 91       	pop	r29
    1580:	08 95       	ret

00001582 <TWI_vidInit>:
#include "BIT_MATH.h"
#include "STD_TYPES.h"
#include "I2C_interface.h"
#include <avr/io.h>

void TWI_vidInit(void) {
    1582:	df 93       	push	r29
    1584:	cf 93       	push	r28
    1586:	cd b7       	in	r28, 0x3d	; 61
    1588:	de b7       	in	r29, 0x3e	; 62
	TWCR = (1<<TWEN); //To enable TWI
    158a:	e6 e5       	ldi	r30, 0x56	; 86
    158c:	f0 e0       	ldi	r31, 0x00	; 0
    158e:	84 e0       	ldi	r24, 0x04	; 4
    1590:	80 83       	st	Z, r24
	TWBR = 2; //Clk configuration
    1592:	e0 e2       	ldi	r30, 0x20	; 32
    1594:	f0 e0       	ldi	r31, 0x00	; 0
    1596:	82 e0       	ldi	r24, 0x02	; 2
    1598:	80 83       	st	Z, r24
	TWSR = 0; //Clk configuration
    159a:	e1 e2       	ldi	r30, 0x21	; 33
    159c:	f0 e0       	ldi	r31, 0x00	; 0
    159e:	10 82       	st	Z, r1
	TWAR = 2; // Address of this node, whether it is a slave or master
    15a0:	e2 e2       	ldi	r30, 0x22	; 34
    15a2:	f0 e0       	ldi	r31, 0x00	; 0
    15a4:	82 e0       	ldi	r24, 0x02	; 2
    15a6:	80 83       	st	Z, r24
}
    15a8:	cf 91       	pop	r28
    15aa:	df 91       	pop	r29
    15ac:	08 95       	ret

000015ae <TWI_vidInitWithValues>:

void TWI_vidInitWithValues(u8 u8BitrateRegVal, u8 u8PresScalerVal) {
    15ae:	df 93       	push	r29
    15b0:	cf 93       	push	r28
    15b2:	00 d0       	rcall	.+0      	; 0x15b4 <TWI_vidInitWithValues+0x6>
    15b4:	cd b7       	in	r28, 0x3d	; 61
    15b6:	de b7       	in	r29, 0x3e	; 62
    15b8:	89 83       	std	Y+1, r24	; 0x01
    15ba:	6a 83       	std	Y+2, r22	; 0x02
	TWCR = (1<<TWEN);
    15bc:	e6 e5       	ldi	r30, 0x56	; 86
    15be:	f0 e0       	ldi	r31, 0x00	; 0
    15c0:	84 e0       	ldi	r24, 0x04	; 4
    15c2:	80 83       	st	Z, r24
	TWBR = u8BitrateRegVal;
    15c4:	e0 e2       	ldi	r30, 0x20	; 32
    15c6:	f0 e0       	ldi	r31, 0x00	; 0
    15c8:	89 81       	ldd	r24, Y+1	; 0x01
    15ca:	80 83       	st	Z, r24
	TWSR = u8PresScalerVal;
    15cc:	e1 e2       	ldi	r30, 0x21	; 33
    15ce:	f0 e0       	ldi	r31, 0x00	; 0
    15d0:	8a 81       	ldd	r24, Y+2	; 0x02
    15d2:	80 83       	st	Z, r24
	TWAR = 2;
    15d4:	e2 e2       	ldi	r30, 0x22	; 34
    15d6:	f0 e0       	ldi	r31, 0x00	; 0
    15d8:	82 e0       	ldi	r24, 0x02	; 2
    15da:	80 83       	st	Z, r24

}
    15dc:	0f 90       	pop	r0
    15de:	0f 90       	pop	r0
    15e0:	cf 91       	pop	r28
    15e2:	df 91       	pop	r29
    15e4:	08 95       	ret

000015e6 <TWI_vidSendStart>:

void TWI_vidSendStart(void) {
    15e6:	df 93       	push	r29
    15e8:	cf 93       	push	r28
    15ea:	cd b7       	in	r28, 0x3d	; 61
    15ec:	de b7       	in	r29, 0x3e	; 62

	TWCR = (1<<TWSTA) | (1<<TWINT) | (1<<TWEN); //
    15ee:	e6 e5       	ldi	r30, 0x56	; 86
    15f0:	f0 e0       	ldi	r31, 0x00	; 0
    15f2:	84 ea       	ldi	r24, 0xA4	; 164
    15f4:	80 83       	st	Z, r24
	while(GET_BIT(TWCR,TWINT) == 0);
    15f6:	e6 e5       	ldi	r30, 0x56	; 86
    15f8:	f0 e0       	ldi	r31, 0x00	; 0
    15fa:	80 81       	ld	r24, Z
    15fc:	88 23       	and	r24, r24
    15fe:	dc f7       	brge	.-10     	; 0x15f6 <TWI_vidSendStart+0x10>
}
    1600:	cf 91       	pop	r28
    1602:	df 91       	pop	r29
    1604:	08 95       	ret

00001606 <TWI_vidSendByte>:

//This function is used to send bytes
//whether data or address.
void TWI_vidSendByte(u8 u8byteCpy) {
    1606:	df 93       	push	r29
    1608:	cf 93       	push	r28
    160a:	0f 92       	push	r0
    160c:	cd b7       	in	r28, 0x3d	; 61
    160e:	de b7       	in	r29, 0x3e	; 62
    1610:	89 83       	std	Y+1, r24	; 0x01
	TWDR = u8byteCpy;
    1612:	e3 e2       	ldi	r30, 0x23	; 35
    1614:	f0 e0       	ldi	r31, 0x00	; 0
    1616:	89 81       	ldd	r24, Y+1	; 0x01
    1618:	80 83       	st	Z, r24
	TWCR = (1<<TWINT) | (1<<TWEN);
    161a:	e6 e5       	ldi	r30, 0x56	; 86
    161c:	f0 e0       	ldi	r31, 0x00	; 0
    161e:	84 e8       	ldi	r24, 0x84	; 132
    1620:	80 83       	st	Z, r24

	while(GET_BIT(TWCR,TWINT)==0); //Waiting for TWI job flag
    1622:	e6 e5       	ldi	r30, 0x56	; 86
    1624:	f0 e0       	ldi	r31, 0x00	; 0
    1626:	80 81       	ld	r24, Z
    1628:	88 23       	and	r24, r24
    162a:	dc f7       	brge	.-10     	; 0x1622 <TWI_vidSendByte+0x1c>
}
    162c:	0f 90       	pop	r0
    162e:	cf 91       	pop	r28
    1630:	df 91       	pop	r29
    1632:	08 95       	ret

00001634 <TWI_vidSendStop>:

void TWI_vidSendStop(void) {
    1634:	df 93       	push	r29
    1636:	cf 93       	push	r28
    1638:	cd b7       	in	r28, 0x3d	; 61
    163a:	de b7       	in	r29, 0x3e	; 62
	TWCR = (1 << TWSTO) | (1 << TWINT) | (1 << TWEN);
    163c:	e6 e5       	ldi	r30, 0x56	; 86
    163e:	f0 e0       	ldi	r31, 0x00	; 0
    1640:	84 e9       	ldi	r24, 0x94	; 148
    1642:	80 83       	st	Z, r24
	//We don't need to worry about checking the flag
}
    1644:	cf 91       	pop	r28
    1646:	df 91       	pop	r29
    1648:	08 95       	ret

0000164a <TWI_u8ReceiveWithAck>:

u8 TWI_u8ReceiveWithAck(void)
{
    164a:	df 93       	push	r29
    164c:	cf 93       	push	r28
    164e:	cd b7       	in	r28, 0x3d	; 61
    1650:	de b7       	in	r29, 0x3e	; 62
	TWCR = (1<<TWINT) | (1<<TWEN) | (1<<TWEA);
    1652:	e6 e5       	ldi	r30, 0x56	; 86
    1654:	f0 e0       	ldi	r31, 0x00	; 0
    1656:	84 ec       	ldi	r24, 0xC4	; 196
    1658:	80 83       	st	Z, r24
	while(GET_BIT(TWCR,TWINT) == 0);
    165a:	e6 e5       	ldi	r30, 0x56	; 86
    165c:	f0 e0       	ldi	r31, 0x00	; 0
    165e:	80 81       	ld	r24, Z
    1660:	88 23       	and	r24, r24
    1662:	dc f7       	brge	.-10     	; 0x165a <TWI_u8ReceiveWithAck+0x10>
	return TWDR;
    1664:	e3 e2       	ldi	r30, 0x23	; 35
    1666:	f0 e0       	ldi	r31, 0x00	; 0
    1668:	80 81       	ld	r24, Z
}
    166a:	cf 91       	pop	r28
    166c:	df 91       	pop	r29
    166e:	08 95       	ret

00001670 <TWI_u8ReceiveWithNoAck>:

u8 TWI_u8ReceiveWithNoAck(void) {
    1670:	df 93       	push	r29
    1672:	cf 93       	push	r28
    1674:	cd b7       	in	r28, 0x3d	; 61
    1676:	de b7       	in	r29, 0x3e	; 62
	TWCR = (1<<TWINT) | (1 << TWEN);
    1678:	e6 e5       	ldi	r30, 0x56	; 86
    167a:	f0 e0       	ldi	r31, 0x00	; 0
    167c:	84 e8       	ldi	r24, 0x84	; 132
    167e:	80 83       	st	Z, r24
	while(GET_BIT(TWCR,TWINT) == 0); //We wait until the job of receiving is complete;
    1680:	e6 e5       	ldi	r30, 0x56	; 86
    1682:	f0 e0       	ldi	r31, 0x00	; 0
    1684:	80 81       	ld	r24, Z
    1686:	88 23       	and	r24, r24
    1688:	dc f7       	brge	.-10     	; 0x1680 <TWI_u8ReceiveWithNoAck+0x10>
	return TWDR;
    168a:	e3 e2       	ldi	r30, 0x23	; 35
    168c:	f0 e0       	ldi	r31, 0x00	; 0
    168e:	80 81       	ld	r24, Z
}
    1690:	cf 91       	pop	r28
    1692:	df 91       	pop	r29
    1694:	08 95       	ret

00001696 <TWI_u8CheckAck>:

//This function takes the expected ACK as an input parameter
//Based on the current job, the microcontoller will check from a list of ACKs.
u8 TWI_u8CheckAck(u8 u8AckCpy) {
    1696:	df 93       	push	r29
    1698:	cf 93       	push	r28
    169a:	00 d0       	rcall	.+0      	; 0x169c <TWI_u8CheckAck+0x6>
    169c:	0f 92       	push	r0
    169e:	cd b7       	in	r28, 0x3d	; 61
    16a0:	de b7       	in	r29, 0x3e	; 62
    16a2:	8a 83       	std	Y+2, r24	; 0x02
	//Masking TWSR
	u8 u8receivedAck;
	u8receivedAck = TWSR&(0b11111000);
    16a4:	e1 e2       	ldi	r30, 0x21	; 33
    16a6:	f0 e0       	ldi	r31, 0x00	; 0
    16a8:	80 81       	ld	r24, Z
    16aa:	88 7f       	andi	r24, 0xF8	; 248
    16ac:	89 83       	std	Y+1, r24	; 0x01
	if(u8receivedAck == u8AckCpy) {
    16ae:	99 81       	ldd	r25, Y+1	; 0x01
    16b0:	8a 81       	ldd	r24, Y+2	; 0x02
    16b2:	98 17       	cp	r25, r24
    16b4:	19 f4       	brne	.+6      	; 0x16bc <TWI_u8CheckAck+0x26>
		return 1;
    16b6:	81 e0       	ldi	r24, 0x01	; 1
    16b8:	8b 83       	std	Y+3, r24	; 0x03
    16ba:	01 c0       	rjmp	.+2      	; 0x16be <TWI_u8CheckAck+0x28>
	}
	else {
		return 0;
    16bc:	1b 82       	std	Y+3, r1	; 0x03
    16be:	8b 81       	ldd	r24, Y+3	; 0x03
	}
}
    16c0:	0f 90       	pop	r0
    16c2:	0f 90       	pop	r0
    16c4:	0f 90       	pop	r0
    16c6:	cf 91       	pop	r28
    16c8:	df 91       	pop	r29
    16ca:	08 95       	ret

000016cc <LCD_voidInit>:
/***************************************************************************************/
/* Description! Apply initialization sequence for LCD module                           */
/* Input      ! Nothing                                                                */
/* Output     ! Nothing                                                                */
/***************************************************************************************/
void LCD_voidInit(void) {
    16cc:	0f 93       	push	r16
    16ce:	1f 93       	push	r17
    16d0:	df 93       	push	r29
    16d2:	cf 93       	push	r28
    16d4:	cd b7       	in	r28, 0x3d	; 61
    16d6:	de b7       	in	r29, 0x3e	; 62
    16d8:	c4 55       	subi	r28, 0x54	; 84
    16da:	d0 40       	sbci	r29, 0x00	; 0
    16dc:	0f b6       	in	r0, 0x3f	; 63
    16de:	f8 94       	cli
    16e0:	de bf       	out	0x3e, r29	; 62
    16e2:	0f be       	out	0x3f, r0	; 63
    16e4:	cd bf       	out	0x3d, r28	; 61
    16e6:	fe 01       	movw	r30, r28
    16e8:	ef 5a       	subi	r30, 0xAF	; 175
    16ea:	ff 4f       	sbci	r31, 0xFF	; 255
    16ec:	80 e0       	ldi	r24, 0x00	; 0
    16ee:	90 e0       	ldi	r25, 0x00	; 0
    16f0:	ac e0       	ldi	r26, 0x0C	; 12
    16f2:	b2 e4       	ldi	r27, 0x42	; 66
    16f4:	80 83       	st	Z, r24
    16f6:	91 83       	std	Z+1, r25	; 0x01
    16f8:	a2 83       	std	Z+2, r26	; 0x02
    16fa:	b3 83       	std	Z+3, r27	; 0x03
 */
void
_delay_ms(double __ms)
{
	uint16_t __ticks;
	double __tmp = ((F_CPU) / 4e3) * __ms;
    16fc:	8e 01       	movw	r16, r28
    16fe:	03 5b       	subi	r16, 0xB3	; 179
    1700:	1f 4f       	sbci	r17, 0xFF	; 255
    1702:	fe 01       	movw	r30, r28
    1704:	ef 5a       	subi	r30, 0xAF	; 175
    1706:	ff 4f       	sbci	r31, 0xFF	; 255
    1708:	60 81       	ld	r22, Z
    170a:	71 81       	ldd	r23, Z+1	; 0x01
    170c:	82 81       	ldd	r24, Z+2	; 0x02
    170e:	93 81       	ldd	r25, Z+3	; 0x03
    1710:	20 e0       	ldi	r18, 0x00	; 0
    1712:	30 e0       	ldi	r19, 0x00	; 0
    1714:	4a ef       	ldi	r20, 0xFA	; 250
    1716:	54 e4       	ldi	r21, 0x44	; 68
    1718:	0e 94 1f 02 	call	0x43e	; 0x43e <__mulsf3>
    171c:	dc 01       	movw	r26, r24
    171e:	cb 01       	movw	r24, r22
    1720:	f8 01       	movw	r30, r16
    1722:	80 83       	st	Z, r24
    1724:	91 83       	std	Z+1, r25	; 0x01
    1726:	a2 83       	std	Z+2, r26	; 0x02
    1728:	b3 83       	std	Z+3, r27	; 0x03
	if (__tmp < 1.0)
    172a:	fe 01       	movw	r30, r28
    172c:	e3 5b       	subi	r30, 0xB3	; 179
    172e:	ff 4f       	sbci	r31, 0xFF	; 255
    1730:	60 81       	ld	r22, Z
    1732:	71 81       	ldd	r23, Z+1	; 0x01
    1734:	82 81       	ldd	r24, Z+2	; 0x02
    1736:	93 81       	ldd	r25, Z+3	; 0x03
    1738:	20 e0       	ldi	r18, 0x00	; 0
    173a:	30 e0       	ldi	r19, 0x00	; 0
    173c:	40 e8       	ldi	r20, 0x80	; 128
    173e:	5f e3       	ldi	r21, 0x3F	; 63
    1740:	0e 94 79 03 	call	0x6f2	; 0x6f2 <__ltsf2>
    1744:	88 23       	and	r24, r24
    1746:	44 f4       	brge	.+16     	; 0x1758 <LCD_voidInit+0x8c>
		__ticks = 1;
    1748:	fe 01       	movw	r30, r28
    174a:	e5 5b       	subi	r30, 0xB5	; 181
    174c:	ff 4f       	sbci	r31, 0xFF	; 255
    174e:	81 e0       	ldi	r24, 0x01	; 1
    1750:	90 e0       	ldi	r25, 0x00	; 0
    1752:	91 83       	std	Z+1, r25	; 0x01
    1754:	80 83       	st	Z, r24
    1756:	64 c0       	rjmp	.+200    	; 0x1820 <LCD_voidInit+0x154>
	else if (__tmp > 65535)
    1758:	fe 01       	movw	r30, r28
    175a:	e3 5b       	subi	r30, 0xB3	; 179
    175c:	ff 4f       	sbci	r31, 0xFF	; 255
    175e:	60 81       	ld	r22, Z
    1760:	71 81       	ldd	r23, Z+1	; 0x01
    1762:	82 81       	ldd	r24, Z+2	; 0x02
    1764:	93 81       	ldd	r25, Z+3	; 0x03
    1766:	20 e0       	ldi	r18, 0x00	; 0
    1768:	3f ef       	ldi	r19, 0xFF	; 255
    176a:	4f e7       	ldi	r20, 0x7F	; 127
    176c:	57 e4       	ldi	r21, 0x47	; 71
    176e:	0e 94 19 03 	call	0x632	; 0x632 <__gtsf2>
    1772:	18 16       	cp	r1, r24
    1774:	0c f0       	brlt	.+2      	; 0x1778 <LCD_voidInit+0xac>
    1776:	43 c0       	rjmp	.+134    	; 0x17fe <LCD_voidInit+0x132>
	{
		//	__ticks = requested delay in 1/10 ms
		__ticks = (uint16_t) (__ms * 10.0);
    1778:	fe 01       	movw	r30, r28
    177a:	ef 5a       	subi	r30, 0xAF	; 175
    177c:	ff 4f       	sbci	r31, 0xFF	; 255
    177e:	60 81       	ld	r22, Z
    1780:	71 81       	ldd	r23, Z+1	; 0x01
    1782:	82 81       	ldd	r24, Z+2	; 0x02
    1784:	93 81       	ldd	r25, Z+3	; 0x03
    1786:	20 e0       	ldi	r18, 0x00	; 0
    1788:	30 e0       	ldi	r19, 0x00	; 0
    178a:	40 e2       	ldi	r20, 0x20	; 32
    178c:	51 e4       	ldi	r21, 0x41	; 65
    178e:	0e 94 1f 02 	call	0x43e	; 0x43e <__mulsf3>
    1792:	dc 01       	movw	r26, r24
    1794:	cb 01       	movw	r24, r22
    1796:	8e 01       	movw	r16, r28
    1798:	05 5b       	subi	r16, 0xB5	; 181
    179a:	1f 4f       	sbci	r17, 0xFF	; 255
    179c:	bc 01       	movw	r22, r24
    179e:	cd 01       	movw	r24, r26
    17a0:	0e 94 49 00 	call	0x92	; 0x92 <__fixunssfsi>
    17a4:	dc 01       	movw	r26, r24
    17a6:	cb 01       	movw	r24, r22
    17a8:	f8 01       	movw	r30, r16
    17aa:	91 83       	std	Z+1, r25	; 0x01
    17ac:	80 83       	st	Z, r24
    17ae:	1f c0       	rjmp	.+62     	; 0x17ee <LCD_voidInit+0x122>
    17b0:	fe 01       	movw	r30, r28
    17b2:	e7 5b       	subi	r30, 0xB7	; 183
    17b4:	ff 4f       	sbci	r31, 0xFF	; 255
    17b6:	88 ec       	ldi	r24, 0xC8	; 200
    17b8:	90 e0       	ldi	r25, 0x00	; 0
    17ba:	91 83       	std	Z+1, r25	; 0x01
    17bc:	80 83       	st	Z, r24
    milliseconds can be achieved.
 */
void
_delay_loop_2(uint16_t __count)
{
	__asm__ volatile (
    17be:	fe 01       	movw	r30, r28
    17c0:	e7 5b       	subi	r30, 0xB7	; 183
    17c2:	ff 4f       	sbci	r31, 0xFF	; 255
    17c4:	80 81       	ld	r24, Z
    17c6:	91 81       	ldd	r25, Z+1	; 0x01
    17c8:	01 97       	sbiw	r24, 0x01	; 1
    17ca:	f1 f7       	brne	.-4      	; 0x17c8 <LCD_voidInit+0xfc>
    17cc:	fe 01       	movw	r30, r28
    17ce:	e7 5b       	subi	r30, 0xB7	; 183
    17d0:	ff 4f       	sbci	r31, 0xFF	; 255
    17d2:	91 83       	std	Z+1, r25	; 0x01
    17d4:	80 83       	st	Z, r24
		while(__ticks)
		{
			// wait 1/10 ms
			_delay_loop_2(((F_CPU) / 4e3) / 10);
			__ticks --;
    17d6:	de 01       	movw	r26, r28
    17d8:	a5 5b       	subi	r26, 0xB5	; 181
    17da:	bf 4f       	sbci	r27, 0xFF	; 255
    17dc:	fe 01       	movw	r30, r28
    17de:	e5 5b       	subi	r30, 0xB5	; 181
    17e0:	ff 4f       	sbci	r31, 0xFF	; 255
    17e2:	80 81       	ld	r24, Z
    17e4:	91 81       	ldd	r25, Z+1	; 0x01
    17e6:	01 97       	sbiw	r24, 0x01	; 1
    17e8:	11 96       	adiw	r26, 0x01	; 1
    17ea:	9c 93       	st	X, r25
    17ec:	8e 93       	st	-X, r24
		__ticks = 1;
	else if (__tmp > 65535)
	{
		//	__ticks = requested delay in 1/10 ms
		__ticks = (uint16_t) (__ms * 10.0);
		while(__ticks)
    17ee:	fe 01       	movw	r30, r28
    17f0:	e5 5b       	subi	r30, 0xB5	; 181
    17f2:	ff 4f       	sbci	r31, 0xFF	; 255
    17f4:	80 81       	ld	r24, Z
    17f6:	91 81       	ldd	r25, Z+1	; 0x01
    17f8:	00 97       	sbiw	r24, 0x00	; 0
    17fa:	d1 f6       	brne	.-76     	; 0x17b0 <LCD_voidInit+0xe4>
    17fc:	27 c0       	rjmp	.+78     	; 0x184c <LCD_voidInit+0x180>
			__ticks --;
		}
		return;
	}
	else
		__ticks = (uint16_t)__tmp;
    17fe:	8e 01       	movw	r16, r28
    1800:	05 5b       	subi	r16, 0xB5	; 181
    1802:	1f 4f       	sbci	r17, 0xFF	; 255
    1804:	fe 01       	movw	r30, r28
    1806:	e3 5b       	subi	r30, 0xB3	; 179
    1808:	ff 4f       	sbci	r31, 0xFF	; 255
    180a:	60 81       	ld	r22, Z
    180c:	71 81       	ldd	r23, Z+1	; 0x01
    180e:	82 81       	ldd	r24, Z+2	; 0x02
    1810:	93 81       	ldd	r25, Z+3	; 0x03
    1812:	0e 94 49 00 	call	0x92	; 0x92 <__fixunssfsi>
    1816:	dc 01       	movw	r26, r24
    1818:	cb 01       	movw	r24, r22
    181a:	f8 01       	movw	r30, r16
    181c:	91 83       	std	Z+1, r25	; 0x01
    181e:	80 83       	st	Z, r24
    1820:	de 01       	movw	r26, r28
    1822:	a9 5b       	subi	r26, 0xB9	; 185
    1824:	bf 4f       	sbci	r27, 0xFF	; 255
    1826:	fe 01       	movw	r30, r28
    1828:	e5 5b       	subi	r30, 0xB5	; 181
    182a:	ff 4f       	sbci	r31, 0xFF	; 255
    182c:	80 81       	ld	r24, Z
    182e:	91 81       	ldd	r25, Z+1	; 0x01
    1830:	8d 93       	st	X+, r24
    1832:	9c 93       	st	X, r25
    1834:	fe 01       	movw	r30, r28
    1836:	e9 5b       	subi	r30, 0xB9	; 185
    1838:	ff 4f       	sbci	r31, 0xFF	; 255
    183a:	80 81       	ld	r24, Z
    183c:	91 81       	ldd	r25, Z+1	; 0x01
    183e:	01 97       	sbiw	r24, 0x01	; 1
    1840:	f1 f7       	brne	.-4      	; 0x183e <LCD_voidInit+0x172>
    1842:	fe 01       	movw	r30, r28
    1844:	e9 5b       	subi	r30, 0xB9	; 185
    1846:	ff 4f       	sbci	r31, 0xFF	; 255
    1848:	91 83       	std	Z+1, r25	; 0x01
    184a:	80 83       	st	Z, r24
#elif LCD_u8_MODE == LCD_u8_MODE_4_BIT
	/* Delay 30ms to ensure the initialization of the LCD driver */
	_delay_ms(35);

	/* Return Home  */
	LCD_voidSendCmnd(lcd_Home);
    184c:	82 e0       	ldi	r24, 0x02	; 2
    184e:	90 e0       	ldi	r25, 0x00	; 0
    1850:	0e 94 93 0e 	call	0x1d26	; 0x1d26 <LCD_voidSendCmnd>
    1854:	fe 01       	movw	r30, r28
    1856:	ed 5b       	subi	r30, 0xBD	; 189
    1858:	ff 4f       	sbci	r31, 0xFF	; 255
    185a:	80 e0       	ldi	r24, 0x00	; 0
    185c:	90 e0       	ldi	r25, 0x00	; 0
    185e:	a0 e8       	ldi	r26, 0x80	; 128
    1860:	bf e3       	ldi	r27, 0x3F	; 63
    1862:	80 83       	st	Z, r24
    1864:	91 83       	std	Z+1, r25	; 0x01
    1866:	a2 83       	std	Z+2, r26	; 0x02
    1868:	b3 83       	std	Z+3, r27	; 0x03
 */
void
_delay_ms(double __ms)
{
	uint16_t __ticks;
	double __tmp = ((F_CPU) / 4e3) * __ms;
    186a:	8e 01       	movw	r16, r28
    186c:	01 5c       	subi	r16, 0xC1	; 193
    186e:	1f 4f       	sbci	r17, 0xFF	; 255
    1870:	fe 01       	movw	r30, r28
    1872:	ed 5b       	subi	r30, 0xBD	; 189
    1874:	ff 4f       	sbci	r31, 0xFF	; 255
    1876:	60 81       	ld	r22, Z
    1878:	71 81       	ldd	r23, Z+1	; 0x01
    187a:	82 81       	ldd	r24, Z+2	; 0x02
    187c:	93 81       	ldd	r25, Z+3	; 0x03
    187e:	20 e0       	ldi	r18, 0x00	; 0
    1880:	30 e0       	ldi	r19, 0x00	; 0
    1882:	4a ef       	ldi	r20, 0xFA	; 250
    1884:	54 e4       	ldi	r21, 0x44	; 68
    1886:	0e 94 1f 02 	call	0x43e	; 0x43e <__mulsf3>
    188a:	dc 01       	movw	r26, r24
    188c:	cb 01       	movw	r24, r22
    188e:	f8 01       	movw	r30, r16
    1890:	80 83       	st	Z, r24
    1892:	91 83       	std	Z+1, r25	; 0x01
    1894:	a2 83       	std	Z+2, r26	; 0x02
    1896:	b3 83       	std	Z+3, r27	; 0x03
	if (__tmp < 1.0)
    1898:	fe 01       	movw	r30, r28
    189a:	ff 96       	adiw	r30, 0x3f	; 63
    189c:	60 81       	ld	r22, Z
    189e:	71 81       	ldd	r23, Z+1	; 0x01
    18a0:	82 81       	ldd	r24, Z+2	; 0x02
    18a2:	93 81       	ldd	r25, Z+3	; 0x03
    18a4:	20 e0       	ldi	r18, 0x00	; 0
    18a6:	30 e0       	ldi	r19, 0x00	; 0
    18a8:	40 e8       	ldi	r20, 0x80	; 128
    18aa:	5f e3       	ldi	r21, 0x3F	; 63
    18ac:	0e 94 79 03 	call	0x6f2	; 0x6f2 <__ltsf2>
    18b0:	88 23       	and	r24, r24
    18b2:	2c f4       	brge	.+10     	; 0x18be <LCD_voidInit+0x1f2>
		__ticks = 1;
    18b4:	81 e0       	ldi	r24, 0x01	; 1
    18b6:	90 e0       	ldi	r25, 0x00	; 0
    18b8:	9e af       	std	Y+62, r25	; 0x3e
    18ba:	8d af       	std	Y+61, r24	; 0x3d
    18bc:	46 c0       	rjmp	.+140    	; 0x194a <LCD_voidInit+0x27e>
	else if (__tmp > 65535)
    18be:	fe 01       	movw	r30, r28
    18c0:	ff 96       	adiw	r30, 0x3f	; 63
    18c2:	60 81       	ld	r22, Z
    18c4:	71 81       	ldd	r23, Z+1	; 0x01
    18c6:	82 81       	ldd	r24, Z+2	; 0x02
    18c8:	93 81       	ldd	r25, Z+3	; 0x03
    18ca:	20 e0       	ldi	r18, 0x00	; 0
    18cc:	3f ef       	ldi	r19, 0xFF	; 255
    18ce:	4f e7       	ldi	r20, 0x7F	; 127
    18d0:	57 e4       	ldi	r21, 0x47	; 71
    18d2:	0e 94 19 03 	call	0x632	; 0x632 <__gtsf2>
    18d6:	18 16       	cp	r1, r24
    18d8:	64 f5       	brge	.+88     	; 0x1932 <LCD_voidInit+0x266>
	{
		//	__ticks = requested delay in 1/10 ms
		__ticks = (uint16_t) (__ms * 10.0);
    18da:	fe 01       	movw	r30, r28
    18dc:	ed 5b       	subi	r30, 0xBD	; 189
    18de:	ff 4f       	sbci	r31, 0xFF	; 255
    18e0:	60 81       	ld	r22, Z
    18e2:	71 81       	ldd	r23, Z+1	; 0x01
    18e4:	82 81       	ldd	r24, Z+2	; 0x02
    18e6:	93 81       	ldd	r25, Z+3	; 0x03
    18e8:	20 e0       	ldi	r18, 0x00	; 0
    18ea:	30 e0       	ldi	r19, 0x00	; 0
    18ec:	40 e2       	ldi	r20, 0x20	; 32
    18ee:	51 e4       	ldi	r21, 0x41	; 65
    18f0:	0e 94 1f 02 	call	0x43e	; 0x43e <__mulsf3>
    18f4:	dc 01       	movw	r26, r24
    18f6:	cb 01       	movw	r24, r22
    18f8:	bc 01       	movw	r22, r24
    18fa:	cd 01       	movw	r24, r26
    18fc:	0e 94 49 00 	call	0x92	; 0x92 <__fixunssfsi>
    1900:	dc 01       	movw	r26, r24
    1902:	cb 01       	movw	r24, r22
    1904:	9e af       	std	Y+62, r25	; 0x3e
    1906:	8d af       	std	Y+61, r24	; 0x3d
    1908:	0f c0       	rjmp	.+30     	; 0x1928 <LCD_voidInit+0x25c>
    190a:	88 ec       	ldi	r24, 0xC8	; 200
    190c:	90 e0       	ldi	r25, 0x00	; 0
    190e:	9c af       	std	Y+60, r25	; 0x3c
    1910:	8b af       	std	Y+59, r24	; 0x3b
    1912:	8b ad       	ldd	r24, Y+59	; 0x3b
    1914:	9c ad       	ldd	r25, Y+60	; 0x3c
    1916:	01 97       	sbiw	r24, 0x01	; 1
    1918:	f1 f7       	brne	.-4      	; 0x1916 <LCD_voidInit+0x24a>
    191a:	9c af       	std	Y+60, r25	; 0x3c
    191c:	8b af       	std	Y+59, r24	; 0x3b
		while(__ticks)
		{
			// wait 1/10 ms
			_delay_loop_2(((F_CPU) / 4e3) / 10);
			__ticks --;
    191e:	8d ad       	ldd	r24, Y+61	; 0x3d
    1920:	9e ad       	ldd	r25, Y+62	; 0x3e
    1922:	01 97       	sbiw	r24, 0x01	; 1
    1924:	9e af       	std	Y+62, r25	; 0x3e
    1926:	8d af       	std	Y+61, r24	; 0x3d
		__ticks = 1;
	else if (__tmp > 65535)
	{
		//	__ticks = requested delay in 1/10 ms
		__ticks = (uint16_t) (__ms * 10.0);
		while(__ticks)
    1928:	8d ad       	ldd	r24, Y+61	; 0x3d
    192a:	9e ad       	ldd	r25, Y+62	; 0x3e
    192c:	00 97       	sbiw	r24, 0x00	; 0
    192e:	69 f7       	brne	.-38     	; 0x190a <LCD_voidInit+0x23e>
    1930:	16 c0       	rjmp	.+44     	; 0x195e <LCD_voidInit+0x292>
			__ticks --;
		}
		return;
	}
	else
		__ticks = (uint16_t)__tmp;
    1932:	fe 01       	movw	r30, r28
    1934:	ff 96       	adiw	r30, 0x3f	; 63
    1936:	60 81       	ld	r22, Z
    1938:	71 81       	ldd	r23, Z+1	; 0x01
    193a:	82 81       	ldd	r24, Z+2	; 0x02
    193c:	93 81       	ldd	r25, Z+3	; 0x03
    193e:	0e 94 49 00 	call	0x92	; 0x92 <__fixunssfsi>
    1942:	dc 01       	movw	r26, r24
    1944:	cb 01       	movw	r24, r22
    1946:	9e af       	std	Y+62, r25	; 0x3e
    1948:	8d af       	std	Y+61, r24	; 0x3d
    194a:	8d ad       	ldd	r24, Y+61	; 0x3d
    194c:	9e ad       	ldd	r25, Y+62	; 0x3e
    194e:	9a af       	std	Y+58, r25	; 0x3a
    1950:	89 af       	std	Y+57, r24	; 0x39
    1952:	89 ad       	ldd	r24, Y+57	; 0x39
    1954:	9a ad       	ldd	r25, Y+58	; 0x3a
    1956:	01 97       	sbiw	r24, 0x01	; 1
    1958:	f1 f7       	brne	.-4      	; 0x1956 <LCD_voidInit+0x28a>
    195a:	9a af       	std	Y+58, r25	; 0x3a
    195c:	89 af       	std	Y+57, r24	; 0x39
	_delay_ms(1);

	/* Function Set  */
	LCD_voidSendCmnd(lcd_FunctionSet4bit);
    195e:	8f e2       	ldi	r24, 0x2F	; 47
    1960:	90 e0       	ldi	r25, 0x00	; 0
    1962:	0e 94 93 0e 	call	0x1d26	; 0x1d26 <LCD_voidSendCmnd>
    1966:	80 e0       	ldi	r24, 0x00	; 0
    1968:	90 e0       	ldi	r25, 0x00	; 0
    196a:	a0 e8       	ldi	r26, 0x80	; 128
    196c:	bf e3       	ldi	r27, 0x3F	; 63
    196e:	8d ab       	std	Y+53, r24	; 0x35
    1970:	9e ab       	std	Y+54, r25	; 0x36
    1972:	af ab       	std	Y+55, r26	; 0x37
    1974:	b8 af       	std	Y+56, r27	; 0x38
 */
void
_delay_ms(double __ms)
{
	uint16_t __ticks;
	double __tmp = ((F_CPU) / 4e3) * __ms;
    1976:	6d a9       	ldd	r22, Y+53	; 0x35
    1978:	7e a9       	ldd	r23, Y+54	; 0x36
    197a:	8f a9       	ldd	r24, Y+55	; 0x37
    197c:	98 ad       	ldd	r25, Y+56	; 0x38
    197e:	20 e0       	ldi	r18, 0x00	; 0
    1980:	30 e0       	ldi	r19, 0x00	; 0
    1982:	4a ef       	ldi	r20, 0xFA	; 250
    1984:	54 e4       	ldi	r21, 0x44	; 68
    1986:	0e 94 1f 02 	call	0x43e	; 0x43e <__mulsf3>
    198a:	dc 01       	movw	r26, r24
    198c:	cb 01       	movw	r24, r22
    198e:	89 ab       	std	Y+49, r24	; 0x31
    1990:	9a ab       	std	Y+50, r25	; 0x32
    1992:	ab ab       	std	Y+51, r26	; 0x33
    1994:	bc ab       	std	Y+52, r27	; 0x34
	if (__tmp < 1.0)
    1996:	69 a9       	ldd	r22, Y+49	; 0x31
    1998:	7a a9       	ldd	r23, Y+50	; 0x32
    199a:	8b a9       	ldd	r24, Y+51	; 0x33
    199c:	9c a9       	ldd	r25, Y+52	; 0x34
    199e:	20 e0       	ldi	r18, 0x00	; 0
    19a0:	30 e0       	ldi	r19, 0x00	; 0
    19a2:	40 e8       	ldi	r20, 0x80	; 128
    19a4:	5f e3       	ldi	r21, 0x3F	; 63
    19a6:	0e 94 79 03 	call	0x6f2	; 0x6f2 <__ltsf2>
    19aa:	88 23       	and	r24, r24
    19ac:	2c f4       	brge	.+10     	; 0x19b8 <LCD_voidInit+0x2ec>
		__ticks = 1;
    19ae:	81 e0       	ldi	r24, 0x01	; 1
    19b0:	90 e0       	ldi	r25, 0x00	; 0
    19b2:	98 ab       	std	Y+48, r25	; 0x30
    19b4:	8f a7       	std	Y+47, r24	; 0x2f
    19b6:	3f c0       	rjmp	.+126    	; 0x1a36 <LCD_voidInit+0x36a>
	else if (__tmp > 65535)
    19b8:	69 a9       	ldd	r22, Y+49	; 0x31
    19ba:	7a a9       	ldd	r23, Y+50	; 0x32
    19bc:	8b a9       	ldd	r24, Y+51	; 0x33
    19be:	9c a9       	ldd	r25, Y+52	; 0x34
    19c0:	20 e0       	ldi	r18, 0x00	; 0
    19c2:	3f ef       	ldi	r19, 0xFF	; 255
    19c4:	4f e7       	ldi	r20, 0x7F	; 127
    19c6:	57 e4       	ldi	r21, 0x47	; 71
    19c8:	0e 94 19 03 	call	0x632	; 0x632 <__gtsf2>
    19cc:	18 16       	cp	r1, r24
    19ce:	4c f5       	brge	.+82     	; 0x1a22 <LCD_voidInit+0x356>
	{
		//	__ticks = requested delay in 1/10 ms
		__ticks = (uint16_t) (__ms * 10.0);
    19d0:	6d a9       	ldd	r22, Y+53	; 0x35
    19d2:	7e a9       	ldd	r23, Y+54	; 0x36
    19d4:	8f a9       	ldd	r24, Y+55	; 0x37
    19d6:	98 ad       	ldd	r25, Y+56	; 0x38
    19d8:	20 e0       	ldi	r18, 0x00	; 0
    19da:	30 e0       	ldi	r19, 0x00	; 0
    19dc:	40 e2       	ldi	r20, 0x20	; 32
    19de:	51 e4       	ldi	r21, 0x41	; 65
    19e0:	0e 94 1f 02 	call	0x43e	; 0x43e <__mulsf3>
    19e4:	dc 01       	movw	r26, r24
    19e6:	cb 01       	movw	r24, r22
    19e8:	bc 01       	movw	r22, r24
    19ea:	cd 01       	movw	r24, r26
    19ec:	0e 94 49 00 	call	0x92	; 0x92 <__fixunssfsi>
    19f0:	dc 01       	movw	r26, r24
    19f2:	cb 01       	movw	r24, r22
    19f4:	98 ab       	std	Y+48, r25	; 0x30
    19f6:	8f a7       	std	Y+47, r24	; 0x2f
    19f8:	0f c0       	rjmp	.+30     	; 0x1a18 <LCD_voidInit+0x34c>
    19fa:	88 ec       	ldi	r24, 0xC8	; 200
    19fc:	90 e0       	ldi	r25, 0x00	; 0
    19fe:	9e a7       	std	Y+46, r25	; 0x2e
    1a00:	8d a7       	std	Y+45, r24	; 0x2d
    1a02:	8d a5       	ldd	r24, Y+45	; 0x2d
    1a04:	9e a5       	ldd	r25, Y+46	; 0x2e
    1a06:	01 97       	sbiw	r24, 0x01	; 1
    1a08:	f1 f7       	brne	.-4      	; 0x1a06 <LCD_voidInit+0x33a>
    1a0a:	9e a7       	std	Y+46, r25	; 0x2e
    1a0c:	8d a7       	std	Y+45, r24	; 0x2d
		while(__ticks)
		{
			// wait 1/10 ms
			_delay_loop_2(((F_CPU) / 4e3) / 10);
			__ticks --;
    1a0e:	8f a5       	ldd	r24, Y+47	; 0x2f
    1a10:	98 a9       	ldd	r25, Y+48	; 0x30
    1a12:	01 97       	sbiw	r24, 0x01	; 1
    1a14:	98 ab       	std	Y+48, r25	; 0x30
    1a16:	8f a7       	std	Y+47, r24	; 0x2f
		__ticks = 1;
	else if (__tmp > 65535)
	{
		//	__ticks = requested delay in 1/10 ms
		__ticks = (uint16_t) (__ms * 10.0);
		while(__ticks)
    1a18:	8f a5       	ldd	r24, Y+47	; 0x2f
    1a1a:	98 a9       	ldd	r25, Y+48	; 0x30
    1a1c:	00 97       	sbiw	r24, 0x00	; 0
    1a1e:	69 f7       	brne	.-38     	; 0x19fa <LCD_voidInit+0x32e>
    1a20:	14 c0       	rjmp	.+40     	; 0x1a4a <LCD_voidInit+0x37e>
			__ticks --;
		}
		return;
	}
	else
		__ticks = (uint16_t)__tmp;
    1a22:	69 a9       	ldd	r22, Y+49	; 0x31
    1a24:	7a a9       	ldd	r23, Y+50	; 0x32
    1a26:	8b a9       	ldd	r24, Y+51	; 0x33
    1a28:	9c a9       	ldd	r25, Y+52	; 0x34
    1a2a:	0e 94 49 00 	call	0x92	; 0x92 <__fixunssfsi>
    1a2e:	dc 01       	movw	r26, r24
    1a30:	cb 01       	movw	r24, r22
    1a32:	98 ab       	std	Y+48, r25	; 0x30
    1a34:	8f a7       	std	Y+47, r24	; 0x2f
    1a36:	8f a5       	ldd	r24, Y+47	; 0x2f
    1a38:	98 a9       	ldd	r25, Y+48	; 0x30
    1a3a:	9c a7       	std	Y+44, r25	; 0x2c
    1a3c:	8b a7       	std	Y+43, r24	; 0x2b
    1a3e:	8b a5       	ldd	r24, Y+43	; 0x2b
    1a40:	9c a5       	ldd	r25, Y+44	; 0x2c
    1a42:	01 97       	sbiw	r24, 0x01	; 1
    1a44:	f1 f7       	brne	.-4      	; 0x1a42 <LCD_voidInit+0x376>
    1a46:	9c a7       	std	Y+44, r25	; 0x2c
    1a48:	8b a7       	std	Y+43, r24	; 0x2b
	_delay_ms(1);

	/* Display ON OFF Control */
	LCD_voidSendCmnd(lcd_DisplayOn);
    1a4a:	8c e0       	ldi	r24, 0x0C	; 12
    1a4c:	90 e0       	ldi	r25, 0x00	; 0
    1a4e:	0e 94 93 0e 	call	0x1d26	; 0x1d26 <LCD_voidSendCmnd>
    1a52:	80 e0       	ldi	r24, 0x00	; 0
    1a54:	90 e0       	ldi	r25, 0x00	; 0
    1a56:	a0 e8       	ldi	r26, 0x80	; 128
    1a58:	bf e3       	ldi	r27, 0x3F	; 63
    1a5a:	8f a3       	std	Y+39, r24	; 0x27
    1a5c:	98 a7       	std	Y+40, r25	; 0x28
    1a5e:	a9 a7       	std	Y+41, r26	; 0x29
    1a60:	ba a7       	std	Y+42, r27	; 0x2a
 */
void
_delay_ms(double __ms)
{
	uint16_t __ticks;
	double __tmp = ((F_CPU) / 4e3) * __ms;
    1a62:	6f a1       	ldd	r22, Y+39	; 0x27
    1a64:	78 a5       	ldd	r23, Y+40	; 0x28
    1a66:	89 a5       	ldd	r24, Y+41	; 0x29
    1a68:	9a a5       	ldd	r25, Y+42	; 0x2a
    1a6a:	20 e0       	ldi	r18, 0x00	; 0
    1a6c:	30 e0       	ldi	r19, 0x00	; 0
    1a6e:	4a ef       	ldi	r20, 0xFA	; 250
    1a70:	54 e4       	ldi	r21, 0x44	; 68
    1a72:	0e 94 1f 02 	call	0x43e	; 0x43e <__mulsf3>
    1a76:	dc 01       	movw	r26, r24
    1a78:	cb 01       	movw	r24, r22
    1a7a:	8b a3       	std	Y+35, r24	; 0x23
    1a7c:	9c a3       	std	Y+36, r25	; 0x24
    1a7e:	ad a3       	std	Y+37, r26	; 0x25
    1a80:	be a3       	std	Y+38, r27	; 0x26
	if (__tmp < 1.0)
    1a82:	6b a1       	ldd	r22, Y+35	; 0x23
    1a84:	7c a1       	ldd	r23, Y+36	; 0x24
    1a86:	8d a1       	ldd	r24, Y+37	; 0x25
    1a88:	9e a1       	ldd	r25, Y+38	; 0x26
    1a8a:	20 e0       	ldi	r18, 0x00	; 0
    1a8c:	30 e0       	ldi	r19, 0x00	; 0
    1a8e:	40 e8       	ldi	r20, 0x80	; 128
    1a90:	5f e3       	ldi	r21, 0x3F	; 63
    1a92:	0e 94 79 03 	call	0x6f2	; 0x6f2 <__ltsf2>
    1a96:	88 23       	and	r24, r24
    1a98:	2c f4       	brge	.+10     	; 0x1aa4 <LCD_voidInit+0x3d8>
		__ticks = 1;
    1a9a:	81 e0       	ldi	r24, 0x01	; 1
    1a9c:	90 e0       	ldi	r25, 0x00	; 0
    1a9e:	9a a3       	std	Y+34, r25	; 0x22
    1aa0:	89 a3       	std	Y+33, r24	; 0x21
    1aa2:	3f c0       	rjmp	.+126    	; 0x1b22 <LCD_voidInit+0x456>
	else if (__tmp > 65535)
    1aa4:	6b a1       	ldd	r22, Y+35	; 0x23
    1aa6:	7c a1       	ldd	r23, Y+36	; 0x24
    1aa8:	8d a1       	ldd	r24, Y+37	; 0x25
    1aaa:	9e a1       	ldd	r25, Y+38	; 0x26
    1aac:	20 e0       	ldi	r18, 0x00	; 0
    1aae:	3f ef       	ldi	r19, 0xFF	; 255
    1ab0:	4f e7       	ldi	r20, 0x7F	; 127
    1ab2:	57 e4       	ldi	r21, 0x47	; 71
    1ab4:	0e 94 19 03 	call	0x632	; 0x632 <__gtsf2>
    1ab8:	18 16       	cp	r1, r24
    1aba:	4c f5       	brge	.+82     	; 0x1b0e <LCD_voidInit+0x442>
	{
		//	__ticks = requested delay in 1/10 ms
		__ticks = (uint16_t) (__ms * 10.0);
    1abc:	6f a1       	ldd	r22, Y+39	; 0x27
    1abe:	78 a5       	ldd	r23, Y+40	; 0x28
    1ac0:	89 a5       	ldd	r24, Y+41	; 0x29
    1ac2:	9a a5       	ldd	r25, Y+42	; 0x2a
    1ac4:	20 e0       	ldi	r18, 0x00	; 0
    1ac6:	30 e0       	ldi	r19, 0x00	; 0
    1ac8:	40 e2       	ldi	r20, 0x20	; 32
    1aca:	51 e4       	ldi	r21, 0x41	; 65
    1acc:	0e 94 1f 02 	call	0x43e	; 0x43e <__mulsf3>
    1ad0:	dc 01       	movw	r26, r24
    1ad2:	cb 01       	movw	r24, r22
    1ad4:	bc 01       	movw	r22, r24
    1ad6:	cd 01       	movw	r24, r26
    1ad8:	0e 94 49 00 	call	0x92	; 0x92 <__fixunssfsi>
    1adc:	dc 01       	movw	r26, r24
    1ade:	cb 01       	movw	r24, r22
    1ae0:	9a a3       	std	Y+34, r25	; 0x22
    1ae2:	89 a3       	std	Y+33, r24	; 0x21
    1ae4:	0f c0       	rjmp	.+30     	; 0x1b04 <LCD_voidInit+0x438>
    1ae6:	88 ec       	ldi	r24, 0xC8	; 200
    1ae8:	90 e0       	ldi	r25, 0x00	; 0
    1aea:	98 a3       	std	Y+32, r25	; 0x20
    1aec:	8f 8f       	std	Y+31, r24	; 0x1f
    1aee:	8f 8d       	ldd	r24, Y+31	; 0x1f
    1af0:	98 a1       	ldd	r25, Y+32	; 0x20
    1af2:	01 97       	sbiw	r24, 0x01	; 1
    1af4:	f1 f7       	brne	.-4      	; 0x1af2 <LCD_voidInit+0x426>
    1af6:	98 a3       	std	Y+32, r25	; 0x20
    1af8:	8f 8f       	std	Y+31, r24	; 0x1f
		while(__ticks)
		{
			// wait 1/10 ms
			_delay_loop_2(((F_CPU) / 4e3) / 10);
			__ticks --;
    1afa:	89 a1       	ldd	r24, Y+33	; 0x21
    1afc:	9a a1       	ldd	r25, Y+34	; 0x22
    1afe:	01 97       	sbiw	r24, 0x01	; 1
    1b00:	9a a3       	std	Y+34, r25	; 0x22
    1b02:	89 a3       	std	Y+33, r24	; 0x21
		__ticks = 1;
	else if (__tmp > 65535)
	{
		//	__ticks = requested delay in 1/10 ms
		__ticks = (uint16_t) (__ms * 10.0);
		while(__ticks)
    1b04:	89 a1       	ldd	r24, Y+33	; 0x21
    1b06:	9a a1       	ldd	r25, Y+34	; 0x22
    1b08:	00 97       	sbiw	r24, 0x00	; 0
    1b0a:	69 f7       	brne	.-38     	; 0x1ae6 <LCD_voidInit+0x41a>
    1b0c:	14 c0       	rjmp	.+40     	; 0x1b36 <LCD_voidInit+0x46a>
			__ticks --;
		}
		return;
	}
	else
		__ticks = (uint16_t)__tmp;
    1b0e:	6b a1       	ldd	r22, Y+35	; 0x23
    1b10:	7c a1       	ldd	r23, Y+36	; 0x24
    1b12:	8d a1       	ldd	r24, Y+37	; 0x25
    1b14:	9e a1       	ldd	r25, Y+38	; 0x26
    1b16:	0e 94 49 00 	call	0x92	; 0x92 <__fixunssfsi>
    1b1a:	dc 01       	movw	r26, r24
    1b1c:	cb 01       	movw	r24, r22
    1b1e:	9a a3       	std	Y+34, r25	; 0x22
    1b20:	89 a3       	std	Y+33, r24	; 0x21
    1b22:	89 a1       	ldd	r24, Y+33	; 0x21
    1b24:	9a a1       	ldd	r25, Y+34	; 0x22
    1b26:	9e 8f       	std	Y+30, r25	; 0x1e
    1b28:	8d 8f       	std	Y+29, r24	; 0x1d
    1b2a:	8d 8d       	ldd	r24, Y+29	; 0x1d
    1b2c:	9e 8d       	ldd	r25, Y+30	; 0x1e
    1b2e:	01 97       	sbiw	r24, 0x01	; 1
    1b30:	f1 f7       	brne	.-4      	; 0x1b2e <LCD_voidInit+0x462>
    1b32:	9e 8f       	std	Y+30, r25	; 0x1e
    1b34:	8d 8f       	std	Y+29, r24	; 0x1d
	_delay_ms(1);

	/* Clear Display */
	LCD_voidSendCmnd(lcd_Clear);
    1b36:	81 e0       	ldi	r24, 0x01	; 1
    1b38:	90 e0       	ldi	r25, 0x00	; 0
    1b3a:	0e 94 93 0e 	call	0x1d26	; 0x1d26 <LCD_voidSendCmnd>
    1b3e:	80 e0       	ldi	r24, 0x00	; 0
    1b40:	90 e0       	ldi	r25, 0x00	; 0
    1b42:	a0 e8       	ldi	r26, 0x80	; 128
    1b44:	bf e3       	ldi	r27, 0x3F	; 63
    1b46:	89 8f       	std	Y+25, r24	; 0x19
    1b48:	9a 8f       	std	Y+26, r25	; 0x1a
    1b4a:	ab 8f       	std	Y+27, r26	; 0x1b
    1b4c:	bc 8f       	std	Y+28, r27	; 0x1c
 */
void
_delay_ms(double __ms)
{
	uint16_t __ticks;
	double __tmp = ((F_CPU) / 4e3) * __ms;
    1b4e:	69 8d       	ldd	r22, Y+25	; 0x19
    1b50:	7a 8d       	ldd	r23, Y+26	; 0x1a
    1b52:	8b 8d       	ldd	r24, Y+27	; 0x1b
    1b54:	9c 8d       	ldd	r25, Y+28	; 0x1c
    1b56:	20 e0       	ldi	r18, 0x00	; 0
    1b58:	30 e0       	ldi	r19, 0x00	; 0
    1b5a:	4a ef       	ldi	r20, 0xFA	; 250
    1b5c:	54 e4       	ldi	r21, 0x44	; 68
    1b5e:	0e 94 1f 02 	call	0x43e	; 0x43e <__mulsf3>
    1b62:	dc 01       	movw	r26, r24
    1b64:	cb 01       	movw	r24, r22
    1b66:	8d 8b       	std	Y+21, r24	; 0x15
    1b68:	9e 8b       	std	Y+22, r25	; 0x16
    1b6a:	af 8b       	std	Y+23, r26	; 0x17
    1b6c:	b8 8f       	std	Y+24, r27	; 0x18
	if (__tmp < 1.0)
    1b6e:	6d 89       	ldd	r22, Y+21	; 0x15
    1b70:	7e 89       	ldd	r23, Y+22	; 0x16
    1b72:	8f 89       	ldd	r24, Y+23	; 0x17
    1b74:	98 8d       	ldd	r25, Y+24	; 0x18
    1b76:	20 e0       	ldi	r18, 0x00	; 0
    1b78:	30 e0       	ldi	r19, 0x00	; 0
    1b7a:	40 e8       	ldi	r20, 0x80	; 128
    1b7c:	5f e3       	ldi	r21, 0x3F	; 63
    1b7e:	0e 94 79 03 	call	0x6f2	; 0x6f2 <__ltsf2>
    1b82:	88 23       	and	r24, r24
    1b84:	2c f4       	brge	.+10     	; 0x1b90 <LCD_voidInit+0x4c4>
		__ticks = 1;
    1b86:	81 e0       	ldi	r24, 0x01	; 1
    1b88:	90 e0       	ldi	r25, 0x00	; 0
    1b8a:	9c 8b       	std	Y+20, r25	; 0x14
    1b8c:	8b 8b       	std	Y+19, r24	; 0x13
    1b8e:	3f c0       	rjmp	.+126    	; 0x1c0e <LCD_voidInit+0x542>
	else if (__tmp > 65535)
    1b90:	6d 89       	ldd	r22, Y+21	; 0x15
    1b92:	7e 89       	ldd	r23, Y+22	; 0x16
    1b94:	8f 89       	ldd	r24, Y+23	; 0x17
    1b96:	98 8d       	ldd	r25, Y+24	; 0x18
    1b98:	20 e0       	ldi	r18, 0x00	; 0
    1b9a:	3f ef       	ldi	r19, 0xFF	; 255
    1b9c:	4f e7       	ldi	r20, 0x7F	; 127
    1b9e:	57 e4       	ldi	r21, 0x47	; 71
    1ba0:	0e 94 19 03 	call	0x632	; 0x632 <__gtsf2>
    1ba4:	18 16       	cp	r1, r24
    1ba6:	4c f5       	brge	.+82     	; 0x1bfa <LCD_voidInit+0x52e>
	{
		//	__ticks = requested delay in 1/10 ms
		__ticks = (uint16_t) (__ms * 10.0);
    1ba8:	69 8d       	ldd	r22, Y+25	; 0x19
    1baa:	7a 8d       	ldd	r23, Y+26	; 0x1a
    1bac:	8b 8d       	ldd	r24, Y+27	; 0x1b
    1bae:	9c 8d       	ldd	r25, Y+28	; 0x1c
    1bb0:	20 e0       	ldi	r18, 0x00	; 0
    1bb2:	30 e0       	ldi	r19, 0x00	; 0
    1bb4:	40 e2       	ldi	r20, 0x20	; 32
    1bb6:	51 e4       	ldi	r21, 0x41	; 65
    1bb8:	0e 94 1f 02 	call	0x43e	; 0x43e <__mulsf3>
    1bbc:	dc 01       	movw	r26, r24
    1bbe:	cb 01       	movw	r24, r22
    1bc0:	bc 01       	movw	r22, r24
    1bc2:	cd 01       	movw	r24, r26
    1bc4:	0e 94 49 00 	call	0x92	; 0x92 <__fixunssfsi>
    1bc8:	dc 01       	movw	r26, r24
    1bca:	cb 01       	movw	r24, r22
    1bcc:	9c 8b       	std	Y+20, r25	; 0x14
    1bce:	8b 8b       	std	Y+19, r24	; 0x13
    1bd0:	0f c0       	rjmp	.+30     	; 0x1bf0 <LCD_voidInit+0x524>
    1bd2:	88 ec       	ldi	r24, 0xC8	; 200
    1bd4:	90 e0       	ldi	r25, 0x00	; 0
    1bd6:	9a 8b       	std	Y+18, r25	; 0x12
    1bd8:	89 8b       	std	Y+17, r24	; 0x11
    1bda:	89 89       	ldd	r24, Y+17	; 0x11
    1bdc:	9a 89       	ldd	r25, Y+18	; 0x12
    1bde:	01 97       	sbiw	r24, 0x01	; 1
    1be0:	f1 f7       	brne	.-4      	; 0x1bde <LCD_voidInit+0x512>
    1be2:	9a 8b       	std	Y+18, r25	; 0x12
    1be4:	89 8b       	std	Y+17, r24	; 0x11
		while(__ticks)
		{
			// wait 1/10 ms
			_delay_loop_2(((F_CPU) / 4e3) / 10);
			__ticks --;
    1be6:	8b 89       	ldd	r24, Y+19	; 0x13
    1be8:	9c 89       	ldd	r25, Y+20	; 0x14
    1bea:	01 97       	sbiw	r24, 0x01	; 1
    1bec:	9c 8b       	std	Y+20, r25	; 0x14
    1bee:	8b 8b       	std	Y+19, r24	; 0x13
		__ticks = 1;
	else if (__tmp > 65535)
	{
		//	__ticks = requested delay in 1/10 ms
		__ticks = (uint16_t) (__ms * 10.0);
		while(__ticks)
    1bf0:	8b 89       	ldd	r24, Y+19	; 0x13
    1bf2:	9c 89       	ldd	r25, Y+20	; 0x14
    1bf4:	00 97       	sbiw	r24, 0x00	; 0
    1bf6:	69 f7       	brne	.-38     	; 0x1bd2 <LCD_voidInit+0x506>
    1bf8:	14 c0       	rjmp	.+40     	; 0x1c22 <LCD_voidInit+0x556>
			__ticks --;
		}
		return;
	}
	else
		__ticks = (uint16_t)__tmp;
    1bfa:	6d 89       	ldd	r22, Y+21	; 0x15
    1bfc:	7e 89       	ldd	r23, Y+22	; 0x16
    1bfe:	8f 89       	ldd	r24, Y+23	; 0x17
    1c00:	98 8d       	ldd	r25, Y+24	; 0x18
    1c02:	0e 94 49 00 	call	0x92	; 0x92 <__fixunssfsi>
    1c06:	dc 01       	movw	r26, r24
    1c08:	cb 01       	movw	r24, r22
    1c0a:	9c 8b       	std	Y+20, r25	; 0x14
    1c0c:	8b 8b       	std	Y+19, r24	; 0x13
    1c0e:	8b 89       	ldd	r24, Y+19	; 0x13
    1c10:	9c 89       	ldd	r25, Y+20	; 0x14
    1c12:	98 8b       	std	Y+16, r25	; 0x10
    1c14:	8f 87       	std	Y+15, r24	; 0x0f
    1c16:	8f 85       	ldd	r24, Y+15	; 0x0f
    1c18:	98 89       	ldd	r25, Y+16	; 0x10
    1c1a:	01 97       	sbiw	r24, 0x01	; 1
    1c1c:	f1 f7       	brne	.-4      	; 0x1c1a <LCD_voidInit+0x54e>
    1c1e:	98 8b       	std	Y+16, r25	; 0x10
    1c20:	8f 87       	std	Y+15, r24	; 0x0f
	_delay_ms(1);

	/* Entry Mode Set  */
	LCD_voidSendCmnd(lcd_EntryMode);
    1c22:	86 e0       	ldi	r24, 0x06	; 6
    1c24:	90 e0       	ldi	r25, 0x00	; 0
    1c26:	0e 94 93 0e 	call	0x1d26	; 0x1d26 <LCD_voidSendCmnd>
    1c2a:	80 e0       	ldi	r24, 0x00	; 0
    1c2c:	90 e0       	ldi	r25, 0x00	; 0
    1c2e:	a0 e0       	ldi	r26, 0x00	; 0
    1c30:	b0 e4       	ldi	r27, 0x40	; 64
    1c32:	8b 87       	std	Y+11, r24	; 0x0b
    1c34:	9c 87       	std	Y+12, r25	; 0x0c
    1c36:	ad 87       	std	Y+13, r26	; 0x0d
    1c38:	be 87       	std	Y+14, r27	; 0x0e
 */
void
_delay_ms(double __ms)
{
	uint16_t __ticks;
	double __tmp = ((F_CPU) / 4e3) * __ms;
    1c3a:	6b 85       	ldd	r22, Y+11	; 0x0b
    1c3c:	7c 85       	ldd	r23, Y+12	; 0x0c
    1c3e:	8d 85       	ldd	r24, Y+13	; 0x0d
    1c40:	9e 85       	ldd	r25, Y+14	; 0x0e
    1c42:	20 e0       	ldi	r18, 0x00	; 0
    1c44:	30 e0       	ldi	r19, 0x00	; 0
    1c46:	4a ef       	ldi	r20, 0xFA	; 250
    1c48:	54 e4       	ldi	r21, 0x44	; 68
    1c4a:	0e 94 1f 02 	call	0x43e	; 0x43e <__mulsf3>
    1c4e:	dc 01       	movw	r26, r24
    1c50:	cb 01       	movw	r24, r22
    1c52:	8f 83       	std	Y+7, r24	; 0x07
    1c54:	98 87       	std	Y+8, r25	; 0x08
    1c56:	a9 87       	std	Y+9, r26	; 0x09
    1c58:	ba 87       	std	Y+10, r27	; 0x0a
	if (__tmp < 1.0)
    1c5a:	6f 81       	ldd	r22, Y+7	; 0x07
    1c5c:	78 85       	ldd	r23, Y+8	; 0x08
    1c5e:	89 85       	ldd	r24, Y+9	; 0x09
    1c60:	9a 85       	ldd	r25, Y+10	; 0x0a
    1c62:	20 e0       	ldi	r18, 0x00	; 0
    1c64:	30 e0       	ldi	r19, 0x00	; 0
    1c66:	40 e8       	ldi	r20, 0x80	; 128
    1c68:	5f e3       	ldi	r21, 0x3F	; 63
    1c6a:	0e 94 79 03 	call	0x6f2	; 0x6f2 <__ltsf2>
    1c6e:	88 23       	and	r24, r24
    1c70:	2c f4       	brge	.+10     	; 0x1c7c <LCD_voidInit+0x5b0>
		__ticks = 1;
    1c72:	81 e0       	ldi	r24, 0x01	; 1
    1c74:	90 e0       	ldi	r25, 0x00	; 0
    1c76:	9e 83       	std	Y+6, r25	; 0x06
    1c78:	8d 83       	std	Y+5, r24	; 0x05
    1c7a:	3f c0       	rjmp	.+126    	; 0x1cfa <LCD_voidInit+0x62e>
	else if (__tmp > 65535)
    1c7c:	6f 81       	ldd	r22, Y+7	; 0x07
    1c7e:	78 85       	ldd	r23, Y+8	; 0x08
    1c80:	89 85       	ldd	r24, Y+9	; 0x09
    1c82:	9a 85       	ldd	r25, Y+10	; 0x0a
    1c84:	20 e0       	ldi	r18, 0x00	; 0
    1c86:	3f ef       	ldi	r19, 0xFF	; 255
    1c88:	4f e7       	ldi	r20, 0x7F	; 127
    1c8a:	57 e4       	ldi	r21, 0x47	; 71
    1c8c:	0e 94 19 03 	call	0x632	; 0x632 <__gtsf2>
    1c90:	18 16       	cp	r1, r24
    1c92:	4c f5       	brge	.+82     	; 0x1ce6 <LCD_voidInit+0x61a>
	{
		//	__ticks = requested delay in 1/10 ms
		__ticks = (uint16_t) (__ms * 10.0);
    1c94:	6b 85       	ldd	r22, Y+11	; 0x0b
    1c96:	7c 85       	ldd	r23, Y+12	; 0x0c
    1c98:	8d 85       	ldd	r24, Y+13	; 0x0d
    1c9a:	9e 85       	ldd	r25, Y+14	; 0x0e
    1c9c:	20 e0       	ldi	r18, 0x00	; 0
    1c9e:	30 e0       	ldi	r19, 0x00	; 0
    1ca0:	40 e2       	ldi	r20, 0x20	; 32
    1ca2:	51 e4       	ldi	r21, 0x41	; 65
    1ca4:	0e 94 1f 02 	call	0x43e	; 0x43e <__mulsf3>
    1ca8:	dc 01       	movw	r26, r24
    1caa:	cb 01       	movw	r24, r22
    1cac:	bc 01       	movw	r22, r24
    1cae:	cd 01       	movw	r24, r26
    1cb0:	0e 94 49 00 	call	0x92	; 0x92 <__fixunssfsi>
    1cb4:	dc 01       	movw	r26, r24
    1cb6:	cb 01       	movw	r24, r22
    1cb8:	9e 83       	std	Y+6, r25	; 0x06
    1cba:	8d 83       	std	Y+5, r24	; 0x05
    1cbc:	0f c0       	rjmp	.+30     	; 0x1cdc <LCD_voidInit+0x610>
    1cbe:	88 ec       	ldi	r24, 0xC8	; 200
    1cc0:	90 e0       	ldi	r25, 0x00	; 0
    1cc2:	9c 83       	std	Y+4, r25	; 0x04
    1cc4:	8b 83       	std	Y+3, r24	; 0x03
    1cc6:	8b 81       	ldd	r24, Y+3	; 0x03
    1cc8:	9c 81       	ldd	r25, Y+4	; 0x04
    1cca:	01 97       	sbiw	r24, 0x01	; 1
    1ccc:	f1 f7       	brne	.-4      	; 0x1cca <LCD_voidInit+0x5fe>
    1cce:	9c 83       	std	Y+4, r25	; 0x04
    1cd0:	8b 83       	std	Y+3, r24	; 0x03
		while(__ticks)
		{
			// wait 1/10 ms
			_delay_loop_2(((F_CPU) / 4e3) / 10);
			__ticks --;
    1cd2:	8d 81       	ldd	r24, Y+5	; 0x05
    1cd4:	9e 81       	ldd	r25, Y+6	; 0x06
    1cd6:	01 97       	sbiw	r24, 0x01	; 1
    1cd8:	9e 83       	std	Y+6, r25	; 0x06
    1cda:	8d 83       	std	Y+5, r24	; 0x05
		__ticks = 1;
	else if (__tmp > 65535)
	{
		//	__ticks = requested delay in 1/10 ms
		__ticks = (uint16_t) (__ms * 10.0);
		while(__ticks)
    1cdc:	8d 81       	ldd	r24, Y+5	; 0x05
    1cde:	9e 81       	ldd	r25, Y+6	; 0x06
    1ce0:	00 97       	sbiw	r24, 0x00	; 0
    1ce2:	69 f7       	brne	.-38     	; 0x1cbe <LCD_voidInit+0x5f2>
    1ce4:	14 c0       	rjmp	.+40     	; 0x1d0e <LCD_voidInit+0x642>
			__ticks --;
		}
		return;
	}
	else
		__ticks = (uint16_t)__tmp;
    1ce6:	6f 81       	ldd	r22, Y+7	; 0x07
    1ce8:	78 85       	ldd	r23, Y+8	; 0x08
    1cea:	89 85       	ldd	r24, Y+9	; 0x09
    1cec:	9a 85       	ldd	r25, Y+10	; 0x0a
    1cee:	0e 94 49 00 	call	0x92	; 0x92 <__fixunssfsi>
    1cf2:	dc 01       	movw	r26, r24
    1cf4:	cb 01       	movw	r24, r22
    1cf6:	9e 83       	std	Y+6, r25	; 0x06
    1cf8:	8d 83       	std	Y+5, r24	; 0x05
    1cfa:	8d 81       	ldd	r24, Y+5	; 0x05
    1cfc:	9e 81       	ldd	r25, Y+6	; 0x06
    1cfe:	9a 83       	std	Y+2, r25	; 0x02
    1d00:	89 83       	std	Y+1, r24	; 0x01
    1d02:	89 81       	ldd	r24, Y+1	; 0x01
    1d04:	9a 81       	ldd	r25, Y+2	; 0x02
    1d06:	01 97       	sbiw	r24, 0x01	; 1
    1d08:	f1 f7       	brne	.-4      	; 0x1d06 <LCD_voidInit+0x63a>
    1d0a:	9a 83       	std	Y+2, r25	; 0x02
    1d0c:	89 83       	std	Y+1, r24	; 0x01
	_delay_ms(2);
#endif
}
    1d0e:	cc 5a       	subi	r28, 0xAC	; 172
    1d10:	df 4f       	sbci	r29, 0xFF	; 255
    1d12:	0f b6       	in	r0, 0x3f	; 63
    1d14:	f8 94       	cli
    1d16:	de bf       	out	0x3e, r29	; 62
    1d18:	0f be       	out	0x3f, r0	; 63
    1d1a:	cd bf       	out	0x3d, r28	; 61
    1d1c:	cf 91       	pop	r28
    1d1e:	df 91       	pop	r29
    1d20:	1f 91       	pop	r17
    1d22:	0f 91       	pop	r16
    1d24:	08 95       	ret

00001d26 <LCD_voidSendCmnd>:
/***************************************************************************************/
/* Description! Interface to send the configuration commands to the LCD Driver         */
/* Input      ! Command number                                                         */
/* Output     ! Nothing                                                                */
/***************************************************************************************/
void LCD_voidSendCmnd(u16 Copy_u8Cmnd) {
    1d26:	df 93       	push	r29
    1d28:	cf 93       	push	r28
    1d2a:	cd b7       	in	r28, 0x3d	; 61
    1d2c:	de b7       	in	r29, 0x3e	; 62
    1d2e:	6e 97       	sbiw	r28, 0x1e	; 30
    1d30:	0f b6       	in	r0, 0x3f	; 63
    1d32:	f8 94       	cli
    1d34:	de bf       	out	0x3e, r29	; 62
    1d36:	0f be       	out	0x3f, r0	; 63
    1d38:	cd bf       	out	0x3d, r28	; 61
    1d3a:	9e 8f       	std	Y+30, r25	; 0x1e
    1d3c:	8d 8f       	std	Y+29, r24	; 0x1d
	DIO_u8SetPinValue(LCD_u8_CONTROL_PORT, LCD_u8_E_PIN, DIO_u8_LOW);

#elif LCD_u8_MODE == LCD_u8_MODE_4_BIT

	/* Set RS to DIO_u8_LOW */
	DIO_u8SetPinValue(LCD_u8_CONTROL_PORT, LCD_u8_RS_PIN, DIO_u8_LOW);
    1d3e:	80 e0       	ldi	r24, 0x00	; 0
    1d40:	63 e0       	ldi	r22, 0x03	; 3
    1d42:	40 e0       	ldi	r20, 0x00	; 0
    1d44:	0e 94 9e 07 	call	0xf3c	; 0xf3c <DIO_u8SetPinValue>

	/* Set R/W to DIO_u8_LOW */
	//DIO_u8SetPinValue(LCD_u8_CONTROL_PORT, LCD_u8_RW_PIN, DIO_u8_LOW);
	/* Load Command on Data bus */
	//DIO_u8SetPortValue(LCD_u8_DATA_PORT, Copy_u8Cmnd);
	DIO_u8SetPinValue(LCD_u8_DATA_PORT, LCD_u8_D7_PIN, GET_BIT(Copy_u8Cmnd, 7));
    1d48:	8d 8d       	ldd	r24, Y+29	; 0x1d
    1d4a:	9e 8d       	ldd	r25, Y+30	; 0x1e
    1d4c:	88 0f       	add	r24, r24
    1d4e:	89 2f       	mov	r24, r25
    1d50:	88 1f       	adc	r24, r24
    1d52:	99 0b       	sbc	r25, r25
    1d54:	91 95       	neg	r25
    1d56:	98 2f       	mov	r25, r24
    1d58:	91 70       	andi	r25, 0x01	; 1
    1d5a:	81 e0       	ldi	r24, 0x01	; 1
    1d5c:	64 e0       	ldi	r22, 0x04	; 4
    1d5e:	49 2f       	mov	r20, r25
    1d60:	0e 94 9e 07 	call	0xf3c	; 0xf3c <DIO_u8SetPinValue>
	DIO_u8SetPinValue(LCD_u8_DATA_PORT, LCD_u8_D6_PIN, GET_BIT(Copy_u8Cmnd, 6));
    1d64:	8d 8d       	ldd	r24, Y+29	; 0x1d
    1d66:	9e 8d       	ldd	r25, Y+30	; 0x1e
    1d68:	00 24       	eor	r0, r0
    1d6a:	88 0f       	add	r24, r24
    1d6c:	99 1f       	adc	r25, r25
    1d6e:	00 1c       	adc	r0, r0
    1d70:	88 0f       	add	r24, r24
    1d72:	99 1f       	adc	r25, r25
    1d74:	00 1c       	adc	r0, r0
    1d76:	89 2f       	mov	r24, r25
    1d78:	90 2d       	mov	r25, r0
    1d7a:	98 2f       	mov	r25, r24
    1d7c:	91 70       	andi	r25, 0x01	; 1
    1d7e:	81 e0       	ldi	r24, 0x01	; 1
    1d80:	62 e0       	ldi	r22, 0x02	; 2
    1d82:	49 2f       	mov	r20, r25
    1d84:	0e 94 9e 07 	call	0xf3c	; 0xf3c <DIO_u8SetPinValue>
	DIO_u8SetPinValue(LCD_u8_DATA_PORT, LCD_u8_D5_PIN, GET_BIT(Copy_u8Cmnd, 5));
    1d88:	8d 8d       	ldd	r24, Y+29	; 0x1d
    1d8a:	9e 8d       	ldd	r25, Y+30	; 0x1e
    1d8c:	96 95       	lsr	r25
    1d8e:	87 95       	ror	r24
    1d90:	92 95       	swap	r25
    1d92:	82 95       	swap	r24
    1d94:	8f 70       	andi	r24, 0x0F	; 15
    1d96:	89 27       	eor	r24, r25
    1d98:	9f 70       	andi	r25, 0x0F	; 15
    1d9a:	89 27       	eor	r24, r25
    1d9c:	98 2f       	mov	r25, r24
    1d9e:	91 70       	andi	r25, 0x01	; 1
    1da0:	81 e0       	ldi	r24, 0x01	; 1
    1da2:	61 e0       	ldi	r22, 0x01	; 1
    1da4:	49 2f       	mov	r20, r25
    1da6:	0e 94 9e 07 	call	0xf3c	; 0xf3c <DIO_u8SetPinValue>
	DIO_u8SetPinValue(LCD_u8_DATA_PORT, LCD_u8_D4_PIN, GET_BIT(Copy_u8Cmnd, 4));
    1daa:	8d 8d       	ldd	r24, Y+29	; 0x1d
    1dac:	9e 8d       	ldd	r25, Y+30	; 0x1e
    1dae:	92 95       	swap	r25
    1db0:	82 95       	swap	r24
    1db2:	8f 70       	andi	r24, 0x0F	; 15
    1db4:	89 27       	eor	r24, r25
    1db6:	9f 70       	andi	r25, 0x0F	; 15
    1db8:	89 27       	eor	r24, r25
    1dba:	98 2f       	mov	r25, r24
    1dbc:	91 70       	andi	r25, 0x01	; 1
    1dbe:	81 e0       	ldi	r24, 0x01	; 1
    1dc0:	60 e0       	ldi	r22, 0x00	; 0
    1dc2:	49 2f       	mov	r20, r25
    1dc4:	0e 94 9e 07 	call	0xf3c	; 0xf3c <DIO_u8SetPinValue>

	/* Set E to DIO_u8_HIGH  */
	DIO_u8SetPinValue(LCD_u8_CONTROL_PORT, LCD_u8_E_PIN, DIO_u8_HIGH);
    1dc8:	80 e0       	ldi	r24, 0x00	; 0
    1dca:	62 e0       	ldi	r22, 0x02	; 2
    1dcc:	41 e0       	ldi	r20, 0x01	; 1
    1dce:	0e 94 9e 07 	call	0xf3c	; 0xf3c <DIO_u8SetPinValue>
    1dd2:	80 e0       	ldi	r24, 0x00	; 0
    1dd4:	90 e0       	ldi	r25, 0x00	; 0
    1dd6:	a0 e0       	ldi	r26, 0x00	; 0
    1dd8:	b0 e4       	ldi	r27, 0x40	; 64
    1dda:	89 8f       	std	Y+25, r24	; 0x19
    1ddc:	9a 8f       	std	Y+26, r25	; 0x1a
    1dde:	ab 8f       	std	Y+27, r26	; 0x1b
    1de0:	bc 8f       	std	Y+28, r27	; 0x1c
 */
void
_delay_ms(double __ms)
{
	uint16_t __ticks;
	double __tmp = ((F_CPU) / 4e3) * __ms;
    1de2:	69 8d       	ldd	r22, Y+25	; 0x19
    1de4:	7a 8d       	ldd	r23, Y+26	; 0x1a
    1de6:	8b 8d       	ldd	r24, Y+27	; 0x1b
    1de8:	9c 8d       	ldd	r25, Y+28	; 0x1c
    1dea:	20 e0       	ldi	r18, 0x00	; 0
    1dec:	30 e0       	ldi	r19, 0x00	; 0
    1dee:	4a ef       	ldi	r20, 0xFA	; 250
    1df0:	54 e4       	ldi	r21, 0x44	; 68
    1df2:	0e 94 1f 02 	call	0x43e	; 0x43e <__mulsf3>
    1df6:	dc 01       	movw	r26, r24
    1df8:	cb 01       	movw	r24, r22
    1dfa:	8d 8b       	std	Y+21, r24	; 0x15
    1dfc:	9e 8b       	std	Y+22, r25	; 0x16
    1dfe:	af 8b       	std	Y+23, r26	; 0x17
    1e00:	b8 8f       	std	Y+24, r27	; 0x18
	if (__tmp < 1.0)
    1e02:	6d 89       	ldd	r22, Y+21	; 0x15
    1e04:	7e 89       	ldd	r23, Y+22	; 0x16
    1e06:	8f 89       	ldd	r24, Y+23	; 0x17
    1e08:	98 8d       	ldd	r25, Y+24	; 0x18
    1e0a:	20 e0       	ldi	r18, 0x00	; 0
    1e0c:	30 e0       	ldi	r19, 0x00	; 0
    1e0e:	40 e8       	ldi	r20, 0x80	; 128
    1e10:	5f e3       	ldi	r21, 0x3F	; 63
    1e12:	0e 94 79 03 	call	0x6f2	; 0x6f2 <__ltsf2>
    1e16:	88 23       	and	r24, r24
    1e18:	2c f4       	brge	.+10     	; 0x1e24 <LCD_voidSendCmnd+0xfe>
		__ticks = 1;
    1e1a:	81 e0       	ldi	r24, 0x01	; 1
    1e1c:	90 e0       	ldi	r25, 0x00	; 0
    1e1e:	9c 8b       	std	Y+20, r25	; 0x14
    1e20:	8b 8b       	std	Y+19, r24	; 0x13
    1e22:	3f c0       	rjmp	.+126    	; 0x1ea2 <LCD_voidSendCmnd+0x17c>
	else if (__tmp > 65535)
    1e24:	6d 89       	ldd	r22, Y+21	; 0x15
    1e26:	7e 89       	ldd	r23, Y+22	; 0x16
    1e28:	8f 89       	ldd	r24, Y+23	; 0x17
    1e2a:	98 8d       	ldd	r25, Y+24	; 0x18
    1e2c:	20 e0       	ldi	r18, 0x00	; 0
    1e2e:	3f ef       	ldi	r19, 0xFF	; 255
    1e30:	4f e7       	ldi	r20, 0x7F	; 127
    1e32:	57 e4       	ldi	r21, 0x47	; 71
    1e34:	0e 94 19 03 	call	0x632	; 0x632 <__gtsf2>
    1e38:	18 16       	cp	r1, r24
    1e3a:	4c f5       	brge	.+82     	; 0x1e8e <LCD_voidSendCmnd+0x168>
	{
		//	__ticks = requested delay in 1/10 ms
		__ticks = (uint16_t) (__ms * 10.0);
    1e3c:	69 8d       	ldd	r22, Y+25	; 0x19
    1e3e:	7a 8d       	ldd	r23, Y+26	; 0x1a
    1e40:	8b 8d       	ldd	r24, Y+27	; 0x1b
    1e42:	9c 8d       	ldd	r25, Y+28	; 0x1c
    1e44:	20 e0       	ldi	r18, 0x00	; 0
    1e46:	30 e0       	ldi	r19, 0x00	; 0
    1e48:	40 e2       	ldi	r20, 0x20	; 32
    1e4a:	51 e4       	ldi	r21, 0x41	; 65
    1e4c:	0e 94 1f 02 	call	0x43e	; 0x43e <__mulsf3>
    1e50:	dc 01       	movw	r26, r24
    1e52:	cb 01       	movw	r24, r22
    1e54:	bc 01       	movw	r22, r24
    1e56:	cd 01       	movw	r24, r26
    1e58:	0e 94 49 00 	call	0x92	; 0x92 <__fixunssfsi>
    1e5c:	dc 01       	movw	r26, r24
    1e5e:	cb 01       	movw	r24, r22
    1e60:	9c 8b       	std	Y+20, r25	; 0x14
    1e62:	8b 8b       	std	Y+19, r24	; 0x13
    1e64:	0f c0       	rjmp	.+30     	; 0x1e84 <LCD_voidSendCmnd+0x15e>
    1e66:	88 ec       	ldi	r24, 0xC8	; 200
    1e68:	90 e0       	ldi	r25, 0x00	; 0
    1e6a:	9a 8b       	std	Y+18, r25	; 0x12
    1e6c:	89 8b       	std	Y+17, r24	; 0x11
    1e6e:	89 89       	ldd	r24, Y+17	; 0x11
    1e70:	9a 89       	ldd	r25, Y+18	; 0x12
    1e72:	01 97       	sbiw	r24, 0x01	; 1
    1e74:	f1 f7       	brne	.-4      	; 0x1e72 <LCD_voidSendCmnd+0x14c>
    1e76:	9a 8b       	std	Y+18, r25	; 0x12
    1e78:	89 8b       	std	Y+17, r24	; 0x11
		while(__ticks)
		{
			// wait 1/10 ms
			_delay_loop_2(((F_CPU) / 4e3) / 10);
			__ticks --;
    1e7a:	8b 89       	ldd	r24, Y+19	; 0x13
    1e7c:	9c 89       	ldd	r25, Y+20	; 0x14
    1e7e:	01 97       	sbiw	r24, 0x01	; 1
    1e80:	9c 8b       	std	Y+20, r25	; 0x14
    1e82:	8b 8b       	std	Y+19, r24	; 0x13
		__ticks = 1;
	else if (__tmp > 65535)
	{
		//	__ticks = requested delay in 1/10 ms
		__ticks = (uint16_t) (__ms * 10.0);
		while(__ticks)
    1e84:	8b 89       	ldd	r24, Y+19	; 0x13
    1e86:	9c 89       	ldd	r25, Y+20	; 0x14
    1e88:	00 97       	sbiw	r24, 0x00	; 0
    1e8a:	69 f7       	brne	.-38     	; 0x1e66 <LCD_voidSendCmnd+0x140>
    1e8c:	14 c0       	rjmp	.+40     	; 0x1eb6 <LCD_voidSendCmnd+0x190>
			__ticks --;
		}
		return;
	}
	else
		__ticks = (uint16_t)__tmp;
    1e8e:	6d 89       	ldd	r22, Y+21	; 0x15
    1e90:	7e 89       	ldd	r23, Y+22	; 0x16
    1e92:	8f 89       	ldd	r24, Y+23	; 0x17
    1e94:	98 8d       	ldd	r25, Y+24	; 0x18
    1e96:	0e 94 49 00 	call	0x92	; 0x92 <__fixunssfsi>
    1e9a:	dc 01       	movw	r26, r24
    1e9c:	cb 01       	movw	r24, r22
    1e9e:	9c 8b       	std	Y+20, r25	; 0x14
    1ea0:	8b 8b       	std	Y+19, r24	; 0x13
    1ea2:	8b 89       	ldd	r24, Y+19	; 0x13
    1ea4:	9c 89       	ldd	r25, Y+20	; 0x14
    1ea6:	98 8b       	std	Y+16, r25	; 0x10
    1ea8:	8f 87       	std	Y+15, r24	; 0x0f
    1eaa:	8f 85       	ldd	r24, Y+15	; 0x0f
    1eac:	98 89       	ldd	r25, Y+16	; 0x10
    1eae:	01 97       	sbiw	r24, 0x01	; 1
    1eb0:	f1 f7       	brne	.-4      	; 0x1eae <LCD_voidSendCmnd+0x188>
    1eb2:	98 8b       	std	Y+16, r25	; 0x10
    1eb4:	8f 87       	std	Y+15, r24	; 0x0f

	/* Wait for E to settle */
	_delay_ms(2);

	/* Set E to DIO_u8_LOW */
	DIO_u8SetPinValue(LCD_u8_CONTROL_PORT, LCD_u8_E_PIN, DIO_u8_LOW);
    1eb6:	80 e0       	ldi	r24, 0x00	; 0
    1eb8:	62 e0       	ldi	r22, 0x02	; 2
    1eba:	40 e0       	ldi	r20, 0x00	; 0
    1ebc:	0e 94 9e 07 	call	0xf3c	; 0xf3c <DIO_u8SetPinValue>

	/*write the rest of the command */
	//DIO_u8SetPortValue(LCD_u8_DATA_PORT, Copy_u8Cmnd << 4);
	DIO_u8SetPinValue(LCD_u8_DATA_PORT, LCD_u8_D7_PIN, GET_BIT(Copy_u8Cmnd, 3));
    1ec0:	8d 8d       	ldd	r24, Y+29	; 0x1d
    1ec2:	9e 8d       	ldd	r25, Y+30	; 0x1e
    1ec4:	96 95       	lsr	r25
    1ec6:	87 95       	ror	r24
    1ec8:	96 95       	lsr	r25
    1eca:	87 95       	ror	r24
    1ecc:	96 95       	lsr	r25
    1ece:	87 95       	ror	r24
    1ed0:	98 2f       	mov	r25, r24
    1ed2:	91 70       	andi	r25, 0x01	; 1
    1ed4:	81 e0       	ldi	r24, 0x01	; 1
    1ed6:	64 e0       	ldi	r22, 0x04	; 4
    1ed8:	49 2f       	mov	r20, r25
    1eda:	0e 94 9e 07 	call	0xf3c	; 0xf3c <DIO_u8SetPinValue>
	DIO_u8SetPinValue(LCD_u8_DATA_PORT, LCD_u8_D6_PIN, GET_BIT(Copy_u8Cmnd, 2));
    1ede:	8d 8d       	ldd	r24, Y+29	; 0x1d
    1ee0:	9e 8d       	ldd	r25, Y+30	; 0x1e
    1ee2:	96 95       	lsr	r25
    1ee4:	87 95       	ror	r24
    1ee6:	96 95       	lsr	r25
    1ee8:	87 95       	ror	r24
    1eea:	98 2f       	mov	r25, r24
    1eec:	91 70       	andi	r25, 0x01	; 1
    1eee:	81 e0       	ldi	r24, 0x01	; 1
    1ef0:	62 e0       	ldi	r22, 0x02	; 2
    1ef2:	49 2f       	mov	r20, r25
    1ef4:	0e 94 9e 07 	call	0xf3c	; 0xf3c <DIO_u8SetPinValue>
	DIO_u8SetPinValue(LCD_u8_DATA_PORT, LCD_u8_D5_PIN, GET_BIT(Copy_u8Cmnd, 1));
    1ef8:	8d 8d       	ldd	r24, Y+29	; 0x1d
    1efa:	9e 8d       	ldd	r25, Y+30	; 0x1e
    1efc:	96 95       	lsr	r25
    1efe:	87 95       	ror	r24
    1f00:	98 2f       	mov	r25, r24
    1f02:	91 70       	andi	r25, 0x01	; 1
    1f04:	81 e0       	ldi	r24, 0x01	; 1
    1f06:	61 e0       	ldi	r22, 0x01	; 1
    1f08:	49 2f       	mov	r20, r25
    1f0a:	0e 94 9e 07 	call	0xf3c	; 0xf3c <DIO_u8SetPinValue>
	DIO_u8SetPinValue(LCD_u8_DATA_PORT, LCD_u8_D4_PIN, GET_BIT(Copy_u8Cmnd, 0));
    1f0e:	8d 8d       	ldd	r24, Y+29	; 0x1d
    1f10:	98 2f       	mov	r25, r24
    1f12:	91 70       	andi	r25, 0x01	; 1
    1f14:	81 e0       	ldi	r24, 0x01	; 1
    1f16:	60 e0       	ldi	r22, 0x00	; 0
    1f18:	49 2f       	mov	r20, r25
    1f1a:	0e 94 9e 07 	call	0xf3c	; 0xf3c <DIO_u8SetPinValue>

	/* Set E to DIO_u8_HIGH  */
	DIO_u8SetPinValue(LCD_u8_CONTROL_PORT, LCD_u8_E_PIN, DIO_u8_HIGH);
    1f1e:	80 e0       	ldi	r24, 0x00	; 0
    1f20:	62 e0       	ldi	r22, 0x02	; 2
    1f22:	41 e0       	ldi	r20, 0x01	; 1
    1f24:	0e 94 9e 07 	call	0xf3c	; 0xf3c <DIO_u8SetPinValue>
    1f28:	80 e0       	ldi	r24, 0x00	; 0
    1f2a:	90 e0       	ldi	r25, 0x00	; 0
    1f2c:	a0 e0       	ldi	r26, 0x00	; 0
    1f2e:	b0 e4       	ldi	r27, 0x40	; 64
    1f30:	8b 87       	std	Y+11, r24	; 0x0b
    1f32:	9c 87       	std	Y+12, r25	; 0x0c
    1f34:	ad 87       	std	Y+13, r26	; 0x0d
    1f36:	be 87       	std	Y+14, r27	; 0x0e
 */
void
_delay_ms(double __ms)
{
	uint16_t __ticks;
	double __tmp = ((F_CPU) / 4e3) * __ms;
    1f38:	6b 85       	ldd	r22, Y+11	; 0x0b
    1f3a:	7c 85       	ldd	r23, Y+12	; 0x0c
    1f3c:	8d 85       	ldd	r24, Y+13	; 0x0d
    1f3e:	9e 85       	ldd	r25, Y+14	; 0x0e
    1f40:	20 e0       	ldi	r18, 0x00	; 0
    1f42:	30 e0       	ldi	r19, 0x00	; 0
    1f44:	4a ef       	ldi	r20, 0xFA	; 250
    1f46:	54 e4       	ldi	r21, 0x44	; 68
    1f48:	0e 94 1f 02 	call	0x43e	; 0x43e <__mulsf3>
    1f4c:	dc 01       	movw	r26, r24
    1f4e:	cb 01       	movw	r24, r22
    1f50:	8f 83       	std	Y+7, r24	; 0x07
    1f52:	98 87       	std	Y+8, r25	; 0x08
    1f54:	a9 87       	std	Y+9, r26	; 0x09
    1f56:	ba 87       	std	Y+10, r27	; 0x0a
	if (__tmp < 1.0)
    1f58:	6f 81       	ldd	r22, Y+7	; 0x07
    1f5a:	78 85       	ldd	r23, Y+8	; 0x08
    1f5c:	89 85       	ldd	r24, Y+9	; 0x09
    1f5e:	9a 85       	ldd	r25, Y+10	; 0x0a
    1f60:	20 e0       	ldi	r18, 0x00	; 0
    1f62:	30 e0       	ldi	r19, 0x00	; 0
    1f64:	40 e8       	ldi	r20, 0x80	; 128
    1f66:	5f e3       	ldi	r21, 0x3F	; 63
    1f68:	0e 94 79 03 	call	0x6f2	; 0x6f2 <__ltsf2>
    1f6c:	88 23       	and	r24, r24
    1f6e:	2c f4       	brge	.+10     	; 0x1f7a <LCD_voidSendCmnd+0x254>
		__ticks = 1;
    1f70:	81 e0       	ldi	r24, 0x01	; 1
    1f72:	90 e0       	ldi	r25, 0x00	; 0
    1f74:	9e 83       	std	Y+6, r25	; 0x06
    1f76:	8d 83       	std	Y+5, r24	; 0x05
    1f78:	3f c0       	rjmp	.+126    	; 0x1ff8 <LCD_voidSendCmnd+0x2d2>
	else if (__tmp > 65535)
    1f7a:	6f 81       	ldd	r22, Y+7	; 0x07
    1f7c:	78 85       	ldd	r23, Y+8	; 0x08
    1f7e:	89 85       	ldd	r24, Y+9	; 0x09
    1f80:	9a 85       	ldd	r25, Y+10	; 0x0a
    1f82:	20 e0       	ldi	r18, 0x00	; 0
    1f84:	3f ef       	ldi	r19, 0xFF	; 255
    1f86:	4f e7       	ldi	r20, 0x7F	; 127
    1f88:	57 e4       	ldi	r21, 0x47	; 71
    1f8a:	0e 94 19 03 	call	0x632	; 0x632 <__gtsf2>
    1f8e:	18 16       	cp	r1, r24
    1f90:	4c f5       	brge	.+82     	; 0x1fe4 <LCD_voidSendCmnd+0x2be>
	{
		//	__ticks = requested delay in 1/10 ms
		__ticks = (uint16_t) (__ms * 10.0);
    1f92:	6b 85       	ldd	r22, Y+11	; 0x0b
    1f94:	7c 85       	ldd	r23, Y+12	; 0x0c
    1f96:	8d 85       	ldd	r24, Y+13	; 0x0d
    1f98:	9e 85       	ldd	r25, Y+14	; 0x0e
    1f9a:	20 e0       	ldi	r18, 0x00	; 0
    1f9c:	30 e0       	ldi	r19, 0x00	; 0
    1f9e:	40 e2       	ldi	r20, 0x20	; 32
    1fa0:	51 e4       	ldi	r21, 0x41	; 65
    1fa2:	0e 94 1f 02 	call	0x43e	; 0x43e <__mulsf3>
    1fa6:	dc 01       	movw	r26, r24
    1fa8:	cb 01       	movw	r24, r22
    1faa:	bc 01       	movw	r22, r24
    1fac:	cd 01       	movw	r24, r26
    1fae:	0e 94 49 00 	call	0x92	; 0x92 <__fixunssfsi>
    1fb2:	dc 01       	movw	r26, r24
    1fb4:	cb 01       	movw	r24, r22
    1fb6:	9e 83       	std	Y+6, r25	; 0x06
    1fb8:	8d 83       	std	Y+5, r24	; 0x05
    1fba:	0f c0       	rjmp	.+30     	; 0x1fda <LCD_voidSendCmnd+0x2b4>
    1fbc:	88 ec       	ldi	r24, 0xC8	; 200
    1fbe:	90 e0       	ldi	r25, 0x00	; 0
    1fc0:	9c 83       	std	Y+4, r25	; 0x04
    1fc2:	8b 83       	std	Y+3, r24	; 0x03
    1fc4:	8b 81       	ldd	r24, Y+3	; 0x03
    1fc6:	9c 81       	ldd	r25, Y+4	; 0x04
    1fc8:	01 97       	sbiw	r24, 0x01	; 1
    1fca:	f1 f7       	brne	.-4      	; 0x1fc8 <LCD_voidSendCmnd+0x2a2>
    1fcc:	9c 83       	std	Y+4, r25	; 0x04
    1fce:	8b 83       	std	Y+3, r24	; 0x03
		while(__ticks)
		{
			// wait 1/10 ms
			_delay_loop_2(((F_CPU) / 4e3) / 10);
			__ticks --;
    1fd0:	8d 81       	ldd	r24, Y+5	; 0x05
    1fd2:	9e 81       	ldd	r25, Y+6	; 0x06
    1fd4:	01 97       	sbiw	r24, 0x01	; 1
    1fd6:	9e 83       	std	Y+6, r25	; 0x06
    1fd8:	8d 83       	std	Y+5, r24	; 0x05
		__ticks = 1;
	else if (__tmp > 65535)
	{
		//	__ticks = requested delay in 1/10 ms
		__ticks = (uint16_t) (__ms * 10.0);
		while(__ticks)
    1fda:	8d 81       	ldd	r24, Y+5	; 0x05
    1fdc:	9e 81       	ldd	r25, Y+6	; 0x06
    1fde:	00 97       	sbiw	r24, 0x00	; 0
    1fe0:	69 f7       	brne	.-38     	; 0x1fbc <LCD_voidSendCmnd+0x296>
    1fe2:	14 c0       	rjmp	.+40     	; 0x200c <LCD_voidSendCmnd+0x2e6>
			__ticks --;
		}
		return;
	}
	else
		__ticks = (uint16_t)__tmp;
    1fe4:	6f 81       	ldd	r22, Y+7	; 0x07
    1fe6:	78 85       	ldd	r23, Y+8	; 0x08
    1fe8:	89 85       	ldd	r24, Y+9	; 0x09
    1fea:	9a 85       	ldd	r25, Y+10	; 0x0a
    1fec:	0e 94 49 00 	call	0x92	; 0x92 <__fixunssfsi>
    1ff0:	dc 01       	movw	r26, r24
    1ff2:	cb 01       	movw	r24, r22
    1ff4:	9e 83       	std	Y+6, r25	; 0x06
    1ff6:	8d 83       	std	Y+5, r24	; 0x05
    1ff8:	8d 81       	ldd	r24, Y+5	; 0x05
    1ffa:	9e 81       	ldd	r25, Y+6	; 0x06
    1ffc:	9a 83       	std	Y+2, r25	; 0x02
    1ffe:	89 83       	std	Y+1, r24	; 0x01
    2000:	89 81       	ldd	r24, Y+1	; 0x01
    2002:	9a 81       	ldd	r25, Y+2	; 0x02
    2004:	01 97       	sbiw	r24, 0x01	; 1
    2006:	f1 f7       	brne	.-4      	; 0x2004 <LCD_voidSendCmnd+0x2de>
    2008:	9a 83       	std	Y+2, r25	; 0x02
    200a:	89 83       	std	Y+1, r24	; 0x01

	/* Wait for E to settle */
	_delay_ms(2);

	/* Set E to DIO_u8_LOW */
	DIO_u8SetPinValue(LCD_u8_CONTROL_PORT, LCD_u8_E_PIN, DIO_u8_LOW);
    200c:	80 e0       	ldi	r24, 0x00	; 0
    200e:	62 e0       	ldi	r22, 0x02	; 2
    2010:	40 e0       	ldi	r20, 0x00	; 0
    2012:	0e 94 9e 07 	call	0xf3c	; 0xf3c <DIO_u8SetPinValue>
#endif

}
    2016:	6e 96       	adiw	r28, 0x1e	; 30
    2018:	0f b6       	in	r0, 0x3f	; 63
    201a:	f8 94       	cli
    201c:	de bf       	out	0x3e, r29	; 62
    201e:	0f be       	out	0x3f, r0	; 63
    2020:	cd bf       	out	0x3d, r28	; 61
    2022:	cf 91       	pop	r28
    2024:	df 91       	pop	r29
    2026:	08 95       	ret

00002028 <LCD_voidSendChar>:
/***************************************************************************************/
/* Description! Interface to write character on LCD screen                             */
/* Input      ! Data to send                                                           */
/* Output     ! Nothing                                                                */
/***************************************************************************************/
void LCD_voidSendChar(u8 Copy_u8Data) {
    2028:	df 93       	push	r29
    202a:	cf 93       	push	r28
    202c:	cd b7       	in	r28, 0x3d	; 61
    202e:	de b7       	in	r29, 0x3e	; 62
    2030:	ab 97       	sbiw	r28, 0x2b	; 43
    2032:	0f b6       	in	r0, 0x3f	; 63
    2034:	f8 94       	cli
    2036:	de bf       	out	0x3e, r29	; 62
    2038:	0f be       	out	0x3f, r0	; 63
    203a:	cd bf       	out	0x3d, r28	; 61
    203c:	8b a7       	std	Y+43, r24	; 0x2b
	/* Delay to let the LCD Display the character */
	_delay_ms(2);

#elif LCD_u8_MODE == LCD_u8_MODE_4_BIT
	/* Set RS to HIG */
	DIO_u8SetPinValue(LCD_u8_CONTROL_PORT, LCD_u8_RS_PIN, DIO_u8_HIGH);
    203e:	80 e0       	ldi	r24, 0x00	; 0
    2040:	63 e0       	ldi	r22, 0x03	; 3
    2042:	41 e0       	ldi	r20, 0x01	; 1
    2044:	0e 94 9e 07 	call	0xf3c	; 0xf3c <DIO_u8SetPinValue>

	/* Set R/W to DIO_u8_LOW */
	//DIO_u8SetPinValue(LCD_u8_CONTROL_PORT, LCD_u8_RW_PIN, DIO_u8_LOW);
	/* Set E to DIO_u8_HIGH */
	DIO_u8SetPinValue(LCD_u8_CONTROL_PORT, LCD_u8_E_PIN, DIO_u8_HIGH);
    2048:	80 e0       	ldi	r24, 0x00	; 0
    204a:	62 e0       	ldi	r22, 0x02	; 2
    204c:	41 e0       	ldi	r20, 0x01	; 1
    204e:	0e 94 9e 07 	call	0xf3c	; 0xf3c <DIO_u8SetPinValue>

	/* Load Command on Data bus */
	//DIO_u8SetPortValue(LCD_u8_DATA_PORT, Copy_u8Data);
	DIO_u8SetPinValue(LCD_u8_DATA_PORT, LCD_u8_D7_PIN, GET_BIT(Copy_u8Data, 7));
    2052:	8b a5       	ldd	r24, Y+43	; 0x2b
    2054:	98 2f       	mov	r25, r24
    2056:	99 1f       	adc	r25, r25
    2058:	99 27       	eor	r25, r25
    205a:	99 1f       	adc	r25, r25
    205c:	81 e0       	ldi	r24, 0x01	; 1
    205e:	64 e0       	ldi	r22, 0x04	; 4
    2060:	49 2f       	mov	r20, r25
    2062:	0e 94 9e 07 	call	0xf3c	; 0xf3c <DIO_u8SetPinValue>
	DIO_u8SetPinValue(LCD_u8_DATA_PORT, LCD_u8_D6_PIN, GET_BIT(Copy_u8Data, 6));
    2066:	8b a5       	ldd	r24, Y+43	; 0x2b
    2068:	82 95       	swap	r24
    206a:	86 95       	lsr	r24
    206c:	86 95       	lsr	r24
    206e:	83 70       	andi	r24, 0x03	; 3
    2070:	98 2f       	mov	r25, r24
    2072:	91 70       	andi	r25, 0x01	; 1
    2074:	81 e0       	ldi	r24, 0x01	; 1
    2076:	62 e0       	ldi	r22, 0x02	; 2
    2078:	49 2f       	mov	r20, r25
    207a:	0e 94 9e 07 	call	0xf3c	; 0xf3c <DIO_u8SetPinValue>
	DIO_u8SetPinValue(LCD_u8_DATA_PORT, LCD_u8_D5_PIN, GET_BIT(Copy_u8Data, 5));
    207e:	8b a5       	ldd	r24, Y+43	; 0x2b
    2080:	82 95       	swap	r24
    2082:	86 95       	lsr	r24
    2084:	87 70       	andi	r24, 0x07	; 7
    2086:	98 2f       	mov	r25, r24
    2088:	91 70       	andi	r25, 0x01	; 1
    208a:	81 e0       	ldi	r24, 0x01	; 1
    208c:	61 e0       	ldi	r22, 0x01	; 1
    208e:	49 2f       	mov	r20, r25
    2090:	0e 94 9e 07 	call	0xf3c	; 0xf3c <DIO_u8SetPinValue>
	DIO_u8SetPinValue(LCD_u8_DATA_PORT, LCD_u8_D4_PIN, GET_BIT(Copy_u8Data, 4));
    2094:	8b a5       	ldd	r24, Y+43	; 0x2b
    2096:	82 95       	swap	r24
    2098:	8f 70       	andi	r24, 0x0F	; 15
    209a:	98 2f       	mov	r25, r24
    209c:	91 70       	andi	r25, 0x01	; 1
    209e:	81 e0       	ldi	r24, 0x01	; 1
    20a0:	60 e0       	ldi	r22, 0x00	; 0
    20a2:	49 2f       	mov	r20, r25
    20a4:	0e 94 9e 07 	call	0xf3c	; 0xf3c <DIO_u8SetPinValue>

	/* Set E to DIO_u8_LOW */
	DIO_u8SetPinValue(LCD_u8_CONTROL_PORT, LCD_u8_E_PIN, DIO_u8_LOW);
    20a8:	80 e0       	ldi	r24, 0x00	; 0
    20aa:	62 e0       	ldi	r22, 0x02	; 2
    20ac:	40 e0       	ldi	r20, 0x00	; 0
    20ae:	0e 94 9e 07 	call	0xf3c	; 0xf3c <DIO_u8SetPinValue>
    20b2:	80 e0       	ldi	r24, 0x00	; 0
    20b4:	90 e0       	ldi	r25, 0x00	; 0
    20b6:	a0 e0       	ldi	r26, 0x00	; 0
    20b8:	b0 e4       	ldi	r27, 0x40	; 64
    20ba:	8f a3       	std	Y+39, r24	; 0x27
    20bc:	98 a7       	std	Y+40, r25	; 0x28
    20be:	a9 a7       	std	Y+41, r26	; 0x29
    20c0:	ba a7       	std	Y+42, r27	; 0x2a
 */
void
_delay_ms(double __ms)
{
	uint16_t __ticks;
	double __tmp = ((F_CPU) / 4e3) * __ms;
    20c2:	6f a1       	ldd	r22, Y+39	; 0x27
    20c4:	78 a5       	ldd	r23, Y+40	; 0x28
    20c6:	89 a5       	ldd	r24, Y+41	; 0x29
    20c8:	9a a5       	ldd	r25, Y+42	; 0x2a
    20ca:	20 e0       	ldi	r18, 0x00	; 0
    20cc:	30 e0       	ldi	r19, 0x00	; 0
    20ce:	4a ef       	ldi	r20, 0xFA	; 250
    20d0:	54 e4       	ldi	r21, 0x44	; 68
    20d2:	0e 94 1f 02 	call	0x43e	; 0x43e <__mulsf3>
    20d6:	dc 01       	movw	r26, r24
    20d8:	cb 01       	movw	r24, r22
    20da:	8b a3       	std	Y+35, r24	; 0x23
    20dc:	9c a3       	std	Y+36, r25	; 0x24
    20de:	ad a3       	std	Y+37, r26	; 0x25
    20e0:	be a3       	std	Y+38, r27	; 0x26
	if (__tmp < 1.0)
    20e2:	6b a1       	ldd	r22, Y+35	; 0x23
    20e4:	7c a1       	ldd	r23, Y+36	; 0x24
    20e6:	8d a1       	ldd	r24, Y+37	; 0x25
    20e8:	9e a1       	ldd	r25, Y+38	; 0x26
    20ea:	20 e0       	ldi	r18, 0x00	; 0
    20ec:	30 e0       	ldi	r19, 0x00	; 0
    20ee:	40 e8       	ldi	r20, 0x80	; 128
    20f0:	5f e3       	ldi	r21, 0x3F	; 63
    20f2:	0e 94 79 03 	call	0x6f2	; 0x6f2 <__ltsf2>
    20f6:	88 23       	and	r24, r24
    20f8:	2c f4       	brge	.+10     	; 0x2104 <LCD_voidSendChar+0xdc>
		__ticks = 1;
    20fa:	81 e0       	ldi	r24, 0x01	; 1
    20fc:	90 e0       	ldi	r25, 0x00	; 0
    20fe:	9a a3       	std	Y+34, r25	; 0x22
    2100:	89 a3       	std	Y+33, r24	; 0x21
    2102:	3f c0       	rjmp	.+126    	; 0x2182 <LCD_voidSendChar+0x15a>
	else if (__tmp > 65535)
    2104:	6b a1       	ldd	r22, Y+35	; 0x23
    2106:	7c a1       	ldd	r23, Y+36	; 0x24
    2108:	8d a1       	ldd	r24, Y+37	; 0x25
    210a:	9e a1       	ldd	r25, Y+38	; 0x26
    210c:	20 e0       	ldi	r18, 0x00	; 0
    210e:	3f ef       	ldi	r19, 0xFF	; 255
    2110:	4f e7       	ldi	r20, 0x7F	; 127
    2112:	57 e4       	ldi	r21, 0x47	; 71
    2114:	0e 94 19 03 	call	0x632	; 0x632 <__gtsf2>
    2118:	18 16       	cp	r1, r24
    211a:	4c f5       	brge	.+82     	; 0x216e <LCD_voidSendChar+0x146>
	{
		//	__ticks = requested delay in 1/10 ms
		__ticks = (uint16_t) (__ms * 10.0);
    211c:	6f a1       	ldd	r22, Y+39	; 0x27
    211e:	78 a5       	ldd	r23, Y+40	; 0x28
    2120:	89 a5       	ldd	r24, Y+41	; 0x29
    2122:	9a a5       	ldd	r25, Y+42	; 0x2a
    2124:	20 e0       	ldi	r18, 0x00	; 0
    2126:	30 e0       	ldi	r19, 0x00	; 0
    2128:	40 e2       	ldi	r20, 0x20	; 32
    212a:	51 e4       	ldi	r21, 0x41	; 65
    212c:	0e 94 1f 02 	call	0x43e	; 0x43e <__mulsf3>
    2130:	dc 01       	movw	r26, r24
    2132:	cb 01       	movw	r24, r22
    2134:	bc 01       	movw	r22, r24
    2136:	cd 01       	movw	r24, r26
    2138:	0e 94 49 00 	call	0x92	; 0x92 <__fixunssfsi>
    213c:	dc 01       	movw	r26, r24
    213e:	cb 01       	movw	r24, r22
    2140:	9a a3       	std	Y+34, r25	; 0x22
    2142:	89 a3       	std	Y+33, r24	; 0x21
    2144:	0f c0       	rjmp	.+30     	; 0x2164 <LCD_voidSendChar+0x13c>
    2146:	88 ec       	ldi	r24, 0xC8	; 200
    2148:	90 e0       	ldi	r25, 0x00	; 0
    214a:	98 a3       	std	Y+32, r25	; 0x20
    214c:	8f 8f       	std	Y+31, r24	; 0x1f
    214e:	8f 8d       	ldd	r24, Y+31	; 0x1f
    2150:	98 a1       	ldd	r25, Y+32	; 0x20
    2152:	01 97       	sbiw	r24, 0x01	; 1
    2154:	f1 f7       	brne	.-4      	; 0x2152 <LCD_voidSendChar+0x12a>
    2156:	98 a3       	std	Y+32, r25	; 0x20
    2158:	8f 8f       	std	Y+31, r24	; 0x1f
		while(__ticks)
		{
			// wait 1/10 ms
			_delay_loop_2(((F_CPU) / 4e3) / 10);
			__ticks --;
    215a:	89 a1       	ldd	r24, Y+33	; 0x21
    215c:	9a a1       	ldd	r25, Y+34	; 0x22
    215e:	01 97       	sbiw	r24, 0x01	; 1
    2160:	9a a3       	std	Y+34, r25	; 0x22
    2162:	89 a3       	std	Y+33, r24	; 0x21
		__ticks = 1;
	else if (__tmp > 65535)
	{
		//	__ticks = requested delay in 1/10 ms
		__ticks = (uint16_t) (__ms * 10.0);
		while(__ticks)
    2164:	89 a1       	ldd	r24, Y+33	; 0x21
    2166:	9a a1       	ldd	r25, Y+34	; 0x22
    2168:	00 97       	sbiw	r24, 0x00	; 0
    216a:	69 f7       	brne	.-38     	; 0x2146 <LCD_voidSendChar+0x11e>
    216c:	14 c0       	rjmp	.+40     	; 0x2196 <LCD_voidSendChar+0x16e>
			__ticks --;
		}
		return;
	}
	else
		__ticks = (uint16_t)__tmp;
    216e:	6b a1       	ldd	r22, Y+35	; 0x23
    2170:	7c a1       	ldd	r23, Y+36	; 0x24
    2172:	8d a1       	ldd	r24, Y+37	; 0x25
    2174:	9e a1       	ldd	r25, Y+38	; 0x26
    2176:	0e 94 49 00 	call	0x92	; 0x92 <__fixunssfsi>
    217a:	dc 01       	movw	r26, r24
    217c:	cb 01       	movw	r24, r22
    217e:	9a a3       	std	Y+34, r25	; 0x22
    2180:	89 a3       	std	Y+33, r24	; 0x21
    2182:	89 a1       	ldd	r24, Y+33	; 0x21
    2184:	9a a1       	ldd	r25, Y+34	; 0x22
    2186:	9e 8f       	std	Y+30, r25	; 0x1e
    2188:	8d 8f       	std	Y+29, r24	; 0x1d
    218a:	8d 8d       	ldd	r24, Y+29	; 0x1d
    218c:	9e 8d       	ldd	r25, Y+30	; 0x1e
    218e:	01 97       	sbiw	r24, 0x01	; 1
    2190:	f1 f7       	brne	.-4      	; 0x218e <LCD_voidSendChar+0x166>
    2192:	9e 8f       	std	Y+30, r25	; 0x1e
    2194:	8d 8f       	std	Y+29, r24	; 0x1d

	/* Wait for E to settle */
	_delay_ms(2);

	/* Set E to DIO_u8_HIGH */
	DIO_u8SetPinValue(LCD_u8_CONTROL_PORT, LCD_u8_E_PIN, DIO_u8_HIGH);
    2196:	80 e0       	ldi	r24, 0x00	; 0
    2198:	62 e0       	ldi	r22, 0x02	; 2
    219a:	41 e0       	ldi	r20, 0x01	; 1
    219c:	0e 94 9e 07 	call	0xf3c	; 0xf3c <DIO_u8SetPinValue>

	/*Load the rest of the command on Data bus */
	//DIO_u8SetPortValue(LCD_u8_DATA_PORT, Copy_u8Data << 4);
	DIO_u8SetPinValue(LCD_u8_DATA_PORT, LCD_u8_D7_PIN, GET_BIT(Copy_u8Data, 3));
    21a0:	8b a5       	ldd	r24, Y+43	; 0x2b
    21a2:	86 95       	lsr	r24
    21a4:	86 95       	lsr	r24
    21a6:	86 95       	lsr	r24
    21a8:	98 2f       	mov	r25, r24
    21aa:	91 70       	andi	r25, 0x01	; 1
    21ac:	81 e0       	ldi	r24, 0x01	; 1
    21ae:	64 e0       	ldi	r22, 0x04	; 4
    21b0:	49 2f       	mov	r20, r25
    21b2:	0e 94 9e 07 	call	0xf3c	; 0xf3c <DIO_u8SetPinValue>
	DIO_u8SetPinValue(LCD_u8_DATA_PORT, LCD_u8_D6_PIN, GET_BIT(Copy_u8Data, 2));
    21b6:	8b a5       	ldd	r24, Y+43	; 0x2b
    21b8:	86 95       	lsr	r24
    21ba:	86 95       	lsr	r24
    21bc:	98 2f       	mov	r25, r24
    21be:	91 70       	andi	r25, 0x01	; 1
    21c0:	81 e0       	ldi	r24, 0x01	; 1
    21c2:	62 e0       	ldi	r22, 0x02	; 2
    21c4:	49 2f       	mov	r20, r25
    21c6:	0e 94 9e 07 	call	0xf3c	; 0xf3c <DIO_u8SetPinValue>
	DIO_u8SetPinValue(LCD_u8_DATA_PORT, LCD_u8_D5_PIN, GET_BIT(Copy_u8Data, 1));
    21ca:	8b a5       	ldd	r24, Y+43	; 0x2b
    21cc:	86 95       	lsr	r24
    21ce:	98 2f       	mov	r25, r24
    21d0:	91 70       	andi	r25, 0x01	; 1
    21d2:	81 e0       	ldi	r24, 0x01	; 1
    21d4:	61 e0       	ldi	r22, 0x01	; 1
    21d6:	49 2f       	mov	r20, r25
    21d8:	0e 94 9e 07 	call	0xf3c	; 0xf3c <DIO_u8SetPinValue>
	DIO_u8SetPinValue(LCD_u8_DATA_PORT, LCD_u8_D4_PIN, GET_BIT(Copy_u8Data, 0));
    21dc:	8b a5       	ldd	r24, Y+43	; 0x2b
    21de:	98 2f       	mov	r25, r24
    21e0:	91 70       	andi	r25, 0x01	; 1
    21e2:	81 e0       	ldi	r24, 0x01	; 1
    21e4:	60 e0       	ldi	r22, 0x00	; 0
    21e6:	49 2f       	mov	r20, r25
    21e8:	0e 94 9e 07 	call	0xf3c	; 0xf3c <DIO_u8SetPinValue>

	/* Set E to DIO_u8_LOW */
	DIO_u8SetPinValue(LCD_u8_CONTROL_PORT, LCD_u8_E_PIN, DIO_u8_LOW);
    21ec:	80 e0       	ldi	r24, 0x00	; 0
    21ee:	62 e0       	ldi	r22, 0x02	; 2
    21f0:	40 e0       	ldi	r20, 0x00	; 0
    21f2:	0e 94 9e 07 	call	0xf3c	; 0xf3c <DIO_u8SetPinValue>
    21f6:	80 e0       	ldi	r24, 0x00	; 0
    21f8:	90 e0       	ldi	r25, 0x00	; 0
    21fa:	a0 e0       	ldi	r26, 0x00	; 0
    21fc:	b0 e4       	ldi	r27, 0x40	; 64
    21fe:	89 8f       	std	Y+25, r24	; 0x19
    2200:	9a 8f       	std	Y+26, r25	; 0x1a
    2202:	ab 8f       	std	Y+27, r26	; 0x1b
    2204:	bc 8f       	std	Y+28, r27	; 0x1c
 */
void
_delay_ms(double __ms)
{
	uint16_t __ticks;
	double __tmp = ((F_CPU) / 4e3) * __ms;
    2206:	69 8d       	ldd	r22, Y+25	; 0x19
    2208:	7a 8d       	ldd	r23, Y+26	; 0x1a
    220a:	8b 8d       	ldd	r24, Y+27	; 0x1b
    220c:	9c 8d       	ldd	r25, Y+28	; 0x1c
    220e:	20 e0       	ldi	r18, 0x00	; 0
    2210:	30 e0       	ldi	r19, 0x00	; 0
    2212:	4a ef       	ldi	r20, 0xFA	; 250
    2214:	54 e4       	ldi	r21, 0x44	; 68
    2216:	0e 94 1f 02 	call	0x43e	; 0x43e <__mulsf3>
    221a:	dc 01       	movw	r26, r24
    221c:	cb 01       	movw	r24, r22
    221e:	8d 8b       	std	Y+21, r24	; 0x15
    2220:	9e 8b       	std	Y+22, r25	; 0x16
    2222:	af 8b       	std	Y+23, r26	; 0x17
    2224:	b8 8f       	std	Y+24, r27	; 0x18
	if (__tmp < 1.0)
    2226:	6d 89       	ldd	r22, Y+21	; 0x15
    2228:	7e 89       	ldd	r23, Y+22	; 0x16
    222a:	8f 89       	ldd	r24, Y+23	; 0x17
    222c:	98 8d       	ldd	r25, Y+24	; 0x18
    222e:	20 e0       	ldi	r18, 0x00	; 0
    2230:	30 e0       	ldi	r19, 0x00	; 0
    2232:	40 e8       	ldi	r20, 0x80	; 128
    2234:	5f e3       	ldi	r21, 0x3F	; 63
    2236:	0e 94 79 03 	call	0x6f2	; 0x6f2 <__ltsf2>
    223a:	88 23       	and	r24, r24
    223c:	2c f4       	brge	.+10     	; 0x2248 <LCD_voidSendChar+0x220>
		__ticks = 1;
    223e:	81 e0       	ldi	r24, 0x01	; 1
    2240:	90 e0       	ldi	r25, 0x00	; 0
    2242:	9c 8b       	std	Y+20, r25	; 0x14
    2244:	8b 8b       	std	Y+19, r24	; 0x13
    2246:	3f c0       	rjmp	.+126    	; 0x22c6 <LCD_voidSendChar+0x29e>
	else if (__tmp > 65535)
    2248:	6d 89       	ldd	r22, Y+21	; 0x15
    224a:	7e 89       	ldd	r23, Y+22	; 0x16
    224c:	8f 89       	ldd	r24, Y+23	; 0x17
    224e:	98 8d       	ldd	r25, Y+24	; 0x18
    2250:	20 e0       	ldi	r18, 0x00	; 0
    2252:	3f ef       	ldi	r19, 0xFF	; 255
    2254:	4f e7       	ldi	r20, 0x7F	; 127
    2256:	57 e4       	ldi	r21, 0x47	; 71
    2258:	0e 94 19 03 	call	0x632	; 0x632 <__gtsf2>
    225c:	18 16       	cp	r1, r24
    225e:	4c f5       	brge	.+82     	; 0x22b2 <LCD_voidSendChar+0x28a>
	{
		//	__ticks = requested delay in 1/10 ms
		__ticks = (uint16_t) (__ms * 10.0);
    2260:	69 8d       	ldd	r22, Y+25	; 0x19
    2262:	7a 8d       	ldd	r23, Y+26	; 0x1a
    2264:	8b 8d       	ldd	r24, Y+27	; 0x1b
    2266:	9c 8d       	ldd	r25, Y+28	; 0x1c
    2268:	20 e0       	ldi	r18, 0x00	; 0
    226a:	30 e0       	ldi	r19, 0x00	; 0
    226c:	40 e2       	ldi	r20, 0x20	; 32
    226e:	51 e4       	ldi	r21, 0x41	; 65
    2270:	0e 94 1f 02 	call	0x43e	; 0x43e <__mulsf3>
    2274:	dc 01       	movw	r26, r24
    2276:	cb 01       	movw	r24, r22
    2278:	bc 01       	movw	r22, r24
    227a:	cd 01       	movw	r24, r26
    227c:	0e 94 49 00 	call	0x92	; 0x92 <__fixunssfsi>
    2280:	dc 01       	movw	r26, r24
    2282:	cb 01       	movw	r24, r22
    2284:	9c 8b       	std	Y+20, r25	; 0x14
    2286:	8b 8b       	std	Y+19, r24	; 0x13
    2288:	0f c0       	rjmp	.+30     	; 0x22a8 <LCD_voidSendChar+0x280>
    228a:	88 ec       	ldi	r24, 0xC8	; 200
    228c:	90 e0       	ldi	r25, 0x00	; 0
    228e:	9a 8b       	std	Y+18, r25	; 0x12
    2290:	89 8b       	std	Y+17, r24	; 0x11
    2292:	89 89       	ldd	r24, Y+17	; 0x11
    2294:	9a 89       	ldd	r25, Y+18	; 0x12
    2296:	01 97       	sbiw	r24, 0x01	; 1
    2298:	f1 f7       	brne	.-4      	; 0x2296 <LCD_voidSendChar+0x26e>
    229a:	9a 8b       	std	Y+18, r25	; 0x12
    229c:	89 8b       	std	Y+17, r24	; 0x11
		while(__ticks)
		{
			// wait 1/10 ms
			_delay_loop_2(((F_CPU) / 4e3) / 10);
			__ticks --;
    229e:	8b 89       	ldd	r24, Y+19	; 0x13
    22a0:	9c 89       	ldd	r25, Y+20	; 0x14
    22a2:	01 97       	sbiw	r24, 0x01	; 1
    22a4:	9c 8b       	std	Y+20, r25	; 0x14
    22a6:	8b 8b       	std	Y+19, r24	; 0x13
		__ticks = 1;
	else if (__tmp > 65535)
	{
		//	__ticks = requested delay in 1/10 ms
		__ticks = (uint16_t) (__ms * 10.0);
		while(__ticks)
    22a8:	8b 89       	ldd	r24, Y+19	; 0x13
    22aa:	9c 89       	ldd	r25, Y+20	; 0x14
    22ac:	00 97       	sbiw	r24, 0x00	; 0
    22ae:	69 f7       	brne	.-38     	; 0x228a <LCD_voidSendChar+0x262>
    22b0:	14 c0       	rjmp	.+40     	; 0x22da <LCD_voidSendChar+0x2b2>
			__ticks --;
		}
		return;
	}
	else
		__ticks = (uint16_t)__tmp;
    22b2:	6d 89       	ldd	r22, Y+21	; 0x15
    22b4:	7e 89       	ldd	r23, Y+22	; 0x16
    22b6:	8f 89       	ldd	r24, Y+23	; 0x17
    22b8:	98 8d       	ldd	r25, Y+24	; 0x18
    22ba:	0e 94 49 00 	call	0x92	; 0x92 <__fixunssfsi>
    22be:	dc 01       	movw	r26, r24
    22c0:	cb 01       	movw	r24, r22
    22c2:	9c 8b       	std	Y+20, r25	; 0x14
    22c4:	8b 8b       	std	Y+19, r24	; 0x13
    22c6:	8b 89       	ldd	r24, Y+19	; 0x13
    22c8:	9c 89       	ldd	r25, Y+20	; 0x14
    22ca:	98 8b       	std	Y+16, r25	; 0x10
    22cc:	8f 87       	std	Y+15, r24	; 0x0f
    22ce:	8f 85       	ldd	r24, Y+15	; 0x0f
    22d0:	98 89       	ldd	r25, Y+16	; 0x10
    22d2:	01 97       	sbiw	r24, 0x01	; 1
    22d4:	f1 f7       	brne	.-4      	; 0x22d2 <LCD_voidSendChar+0x2aa>
    22d6:	98 8b       	std	Y+16, r25	; 0x10
    22d8:	8f 87       	std	Y+15, r24	; 0x0f

	/* Wait for E to settle */
	_delay_ms(2);

	/* Set E to DIO_u8_HIGH */
	DIO_u8SetPinValue(LCD_u8_CONTROL_PORT, LCD_u8_E_PIN, DIO_u8_HIGH);
    22da:	80 e0       	ldi	r24, 0x00	; 0
    22dc:	62 e0       	ldi	r22, 0x02	; 2
    22de:	41 e0       	ldi	r20, 0x01	; 1
    22e0:	0e 94 9e 07 	call	0xf3c	; 0xf3c <DIO_u8SetPinValue>
    22e4:	80 e0       	ldi	r24, 0x00	; 0
    22e6:	90 e0       	ldi	r25, 0x00	; 0
    22e8:	a0 e0       	ldi	r26, 0x00	; 0
    22ea:	b0 e4       	ldi	r27, 0x40	; 64
    22ec:	8b 87       	std	Y+11, r24	; 0x0b
    22ee:	9c 87       	std	Y+12, r25	; 0x0c
    22f0:	ad 87       	std	Y+13, r26	; 0x0d
    22f2:	be 87       	std	Y+14, r27	; 0x0e
 */
void
_delay_ms(double __ms)
{
	uint16_t __ticks;
	double __tmp = ((F_CPU) / 4e3) * __ms;
    22f4:	6b 85       	ldd	r22, Y+11	; 0x0b
    22f6:	7c 85       	ldd	r23, Y+12	; 0x0c
    22f8:	8d 85       	ldd	r24, Y+13	; 0x0d
    22fa:	9e 85       	ldd	r25, Y+14	; 0x0e
    22fc:	20 e0       	ldi	r18, 0x00	; 0
    22fe:	30 e0       	ldi	r19, 0x00	; 0
    2300:	4a ef       	ldi	r20, 0xFA	; 250
    2302:	54 e4       	ldi	r21, 0x44	; 68
    2304:	0e 94 1f 02 	call	0x43e	; 0x43e <__mulsf3>
    2308:	dc 01       	movw	r26, r24
    230a:	cb 01       	movw	r24, r22
    230c:	8f 83       	std	Y+7, r24	; 0x07
    230e:	98 87       	std	Y+8, r25	; 0x08
    2310:	a9 87       	std	Y+9, r26	; 0x09
    2312:	ba 87       	std	Y+10, r27	; 0x0a
	if (__tmp < 1.0)
    2314:	6f 81       	ldd	r22, Y+7	; 0x07
    2316:	78 85       	ldd	r23, Y+8	; 0x08
    2318:	89 85       	ldd	r24, Y+9	; 0x09
    231a:	9a 85       	ldd	r25, Y+10	; 0x0a
    231c:	20 e0       	ldi	r18, 0x00	; 0
    231e:	30 e0       	ldi	r19, 0x00	; 0
    2320:	40 e8       	ldi	r20, 0x80	; 128
    2322:	5f e3       	ldi	r21, 0x3F	; 63
    2324:	0e 94 79 03 	call	0x6f2	; 0x6f2 <__ltsf2>
    2328:	88 23       	and	r24, r24
    232a:	2c f4       	brge	.+10     	; 0x2336 <LCD_voidSendChar+0x30e>
		__ticks = 1;
    232c:	81 e0       	ldi	r24, 0x01	; 1
    232e:	90 e0       	ldi	r25, 0x00	; 0
    2330:	9e 83       	std	Y+6, r25	; 0x06
    2332:	8d 83       	std	Y+5, r24	; 0x05
    2334:	3f c0       	rjmp	.+126    	; 0x23b4 <LCD_voidSendChar+0x38c>
	else if (__tmp > 65535)
    2336:	6f 81       	ldd	r22, Y+7	; 0x07
    2338:	78 85       	ldd	r23, Y+8	; 0x08
    233a:	89 85       	ldd	r24, Y+9	; 0x09
    233c:	9a 85       	ldd	r25, Y+10	; 0x0a
    233e:	20 e0       	ldi	r18, 0x00	; 0
    2340:	3f ef       	ldi	r19, 0xFF	; 255
    2342:	4f e7       	ldi	r20, 0x7F	; 127
    2344:	57 e4       	ldi	r21, 0x47	; 71
    2346:	0e 94 19 03 	call	0x632	; 0x632 <__gtsf2>
    234a:	18 16       	cp	r1, r24
    234c:	4c f5       	brge	.+82     	; 0x23a0 <LCD_voidSendChar+0x378>
	{
		//	__ticks = requested delay in 1/10 ms
		__ticks = (uint16_t) (__ms * 10.0);
    234e:	6b 85       	ldd	r22, Y+11	; 0x0b
    2350:	7c 85       	ldd	r23, Y+12	; 0x0c
    2352:	8d 85       	ldd	r24, Y+13	; 0x0d
    2354:	9e 85       	ldd	r25, Y+14	; 0x0e
    2356:	20 e0       	ldi	r18, 0x00	; 0
    2358:	30 e0       	ldi	r19, 0x00	; 0
    235a:	40 e2       	ldi	r20, 0x20	; 32
    235c:	51 e4       	ldi	r21, 0x41	; 65
    235e:	0e 94 1f 02 	call	0x43e	; 0x43e <__mulsf3>
    2362:	dc 01       	movw	r26, r24
    2364:	cb 01       	movw	r24, r22
    2366:	bc 01       	movw	r22, r24
    2368:	cd 01       	movw	r24, r26
    236a:	0e 94 49 00 	call	0x92	; 0x92 <__fixunssfsi>
    236e:	dc 01       	movw	r26, r24
    2370:	cb 01       	movw	r24, r22
    2372:	9e 83       	std	Y+6, r25	; 0x06
    2374:	8d 83       	std	Y+5, r24	; 0x05
    2376:	0f c0       	rjmp	.+30     	; 0x2396 <LCD_voidSendChar+0x36e>
    2378:	88 ec       	ldi	r24, 0xC8	; 200
    237a:	90 e0       	ldi	r25, 0x00	; 0
    237c:	9c 83       	std	Y+4, r25	; 0x04
    237e:	8b 83       	std	Y+3, r24	; 0x03
    2380:	8b 81       	ldd	r24, Y+3	; 0x03
    2382:	9c 81       	ldd	r25, Y+4	; 0x04
    2384:	01 97       	sbiw	r24, 0x01	; 1
    2386:	f1 f7       	brne	.-4      	; 0x2384 <LCD_voidSendChar+0x35c>
    2388:	9c 83       	std	Y+4, r25	; 0x04
    238a:	8b 83       	std	Y+3, r24	; 0x03
		while(__ticks)
		{
			// wait 1/10 ms
			_delay_loop_2(((F_CPU) / 4e3) / 10);
			__ticks --;
    238c:	8d 81       	ldd	r24, Y+5	; 0x05
    238e:	9e 81       	ldd	r25, Y+6	; 0x06
    2390:	01 97       	sbiw	r24, 0x01	; 1
    2392:	9e 83       	std	Y+6, r25	; 0x06
    2394:	8d 83       	std	Y+5, r24	; 0x05
		__ticks = 1;
	else if (__tmp > 65535)
	{
		//	__ticks = requested delay in 1/10 ms
		__ticks = (uint16_t) (__ms * 10.0);
		while(__ticks)
    2396:	8d 81       	ldd	r24, Y+5	; 0x05
    2398:	9e 81       	ldd	r25, Y+6	; 0x06
    239a:	00 97       	sbiw	r24, 0x00	; 0
    239c:	69 f7       	brne	.-38     	; 0x2378 <LCD_voidSendChar+0x350>
    239e:	14 c0       	rjmp	.+40     	; 0x23c8 <LCD_voidSendChar+0x3a0>
			__ticks --;
		}
		return;
	}
	else
		__ticks = (uint16_t)__tmp;
    23a0:	6f 81       	ldd	r22, Y+7	; 0x07
    23a2:	78 85       	ldd	r23, Y+8	; 0x08
    23a4:	89 85       	ldd	r24, Y+9	; 0x09
    23a6:	9a 85       	ldd	r25, Y+10	; 0x0a
    23a8:	0e 94 49 00 	call	0x92	; 0x92 <__fixunssfsi>
    23ac:	dc 01       	movw	r26, r24
    23ae:	cb 01       	movw	r24, r22
    23b0:	9e 83       	std	Y+6, r25	; 0x06
    23b2:	8d 83       	std	Y+5, r24	; 0x05
    23b4:	8d 81       	ldd	r24, Y+5	; 0x05
    23b6:	9e 81       	ldd	r25, Y+6	; 0x06
    23b8:	9a 83       	std	Y+2, r25	; 0x02
    23ba:	89 83       	std	Y+1, r24	; 0x01
    23bc:	89 81       	ldd	r24, Y+1	; 0x01
    23be:	9a 81       	ldd	r25, Y+2	; 0x02
    23c0:	01 97       	sbiw	r24, 0x01	; 1
    23c2:	f1 f7       	brne	.-4      	; 0x23c0 <LCD_voidSendChar+0x398>
    23c4:	9a 83       	std	Y+2, r25	; 0x02
    23c6:	89 83       	std	Y+1, r24	; 0x01
	/* Delay to let the LCD Display the character */
	_delay_ms(2);

#endif

}
    23c8:	ab 96       	adiw	r28, 0x2b	; 43
    23ca:	0f b6       	in	r0, 0x3f	; 63
    23cc:	f8 94       	cli
    23ce:	de bf       	out	0x3e, r29	; 62
    23d0:	0f be       	out	0x3f, r0	; 63
    23d2:	cd bf       	out	0x3d, r28	; 61
    23d4:	cf 91       	pop	r28
    23d6:	df 91       	pop	r29
    23d8:	08 95       	ret

000023da <LCD_voidSendString>:
/***************************************************************************************/
/* Description! Interface to write string on LCD screen                                */
/* Input      ! Pointer to the string                                                  */
/* Output     ! Nothing                                                                */
/***************************************************************************************/
void LCD_voidSendString(u8 *Copy_pu8String) {
    23da:	df 93       	push	r29
    23dc:	cf 93       	push	r28
    23de:	00 d0       	rcall	.+0      	; 0x23e0 <LCD_voidSendString+0x6>
    23e0:	0f 92       	push	r0
    23e2:	cd b7       	in	r28, 0x3d	; 61
    23e4:	de b7       	in	r29, 0x3e	; 62
    23e6:	9b 83       	std	Y+3, r25	; 0x03
    23e8:	8a 83       	std	Y+2, r24	; 0x02

	//	/* Local loop index */
	//	u8 u8Index = 0;
	u8 iteration = 0;
    23ea:	19 82       	std	Y+1, r1	; 0x01
	//	while (pu8StringCpy[u8Index] != '\0')
	for (iteration = 0; Copy_pu8String[iteration] != '\0'; iteration++) {
    23ec:	19 82       	std	Y+1, r1	; 0x01
    23ee:	0e c0       	rjmp	.+28     	; 0x240c <LCD_voidSendString+0x32>
		/* Write Character on LCD */
		LCD_voidSendChar(Copy_pu8String[iteration]);
    23f0:	89 81       	ldd	r24, Y+1	; 0x01
    23f2:	28 2f       	mov	r18, r24
    23f4:	30 e0       	ldi	r19, 0x00	; 0
    23f6:	8a 81       	ldd	r24, Y+2	; 0x02
    23f8:	9b 81       	ldd	r25, Y+3	; 0x03
    23fa:	fc 01       	movw	r30, r24
    23fc:	e2 0f       	add	r30, r18
    23fe:	f3 1f       	adc	r31, r19
    2400:	80 81       	ld	r24, Z
    2402:	0e 94 14 10 	call	0x2028	; 0x2028 <LCD_voidSendChar>

	//	/* Local loop index */
	//	u8 u8Index = 0;
	u8 iteration = 0;
	//	while (pu8StringCpy[u8Index] != '\0')
	for (iteration = 0; Copy_pu8String[iteration] != '\0'; iteration++) {
    2406:	89 81       	ldd	r24, Y+1	; 0x01
    2408:	8f 5f       	subi	r24, 0xFF	; 255
    240a:	89 83       	std	Y+1, r24	; 0x01
    240c:	89 81       	ldd	r24, Y+1	; 0x01
    240e:	28 2f       	mov	r18, r24
    2410:	30 e0       	ldi	r19, 0x00	; 0
    2412:	8a 81       	ldd	r24, Y+2	; 0x02
    2414:	9b 81       	ldd	r25, Y+3	; 0x03
    2416:	fc 01       	movw	r30, r24
    2418:	e2 0f       	add	r30, r18
    241a:	f3 1f       	adc	r31, r19
    241c:	80 81       	ld	r24, Z
    241e:	88 23       	and	r24, r24
    2420:	39 f7       	brne	.-50     	; 0x23f0 <LCD_voidSendString+0x16>
		LCD_voidSendChar(Copy_pu8String[iteration]);

		//		/* Increment local loop index */
		//		u8Index++;
	}
}
    2422:	0f 90       	pop	r0
    2424:	0f 90       	pop	r0
    2426:	0f 90       	pop	r0
    2428:	cf 91       	pop	r28
    242a:	df 91       	pop	r29
    242c:	08 95       	ret

0000242e <LCD_voidSendIntger>:

void LCD_voidSendIntger(s32 Copy_s32Data) {
    242e:	df 93       	push	r29
    2430:	cf 93       	push	r28
    2432:	cd b7       	in	r28, 0x3d	; 61
    2434:	de b7       	in	r29, 0x3e	; 62
    2436:	ac 97       	sbiw	r28, 0x2c	; 44
    2438:	0f b6       	in	r0, 0x3f	; 63
    243a:	f8 94       	cli
    243c:	de bf       	out	0x3e, r29	; 62
    243e:	0f be       	out	0x3f, r0	; 63
    2440:	cd bf       	out	0x3d, r28	; 61
    2442:	69 a7       	std	Y+41, r22	; 0x29
    2444:	7a a7       	std	Y+42, r23	; 0x2a
    2446:	8b a7       	std	Y+43, r24	; 0x2b
    2448:	9c a7       	std	Y+44, r25	; 0x2c
	u32 str[10];
	// Converts Int to String
	sprintf(str, "%ld", Copy_s32Data);
    244a:	ce 01       	movw	r24, r28
    244c:	01 96       	adiw	r24, 0x01	; 1
    244e:	2d b7       	in	r18, 0x3d	; 61
    2450:	3e b7       	in	r19, 0x3e	; 62
    2452:	28 50       	subi	r18, 0x08	; 8
    2454:	30 40       	sbci	r19, 0x00	; 0
    2456:	0f b6       	in	r0, 0x3f	; 63
    2458:	f8 94       	cli
    245a:	3e bf       	out	0x3e, r19	; 62
    245c:	0f be       	out	0x3f, r0	; 63
    245e:	2d bf       	out	0x3d, r18	; 61
    2460:	ed b7       	in	r30, 0x3d	; 61
    2462:	fe b7       	in	r31, 0x3e	; 62
    2464:	31 96       	adiw	r30, 0x01	; 1
    2466:	91 83       	std	Z+1, r25	; 0x01
    2468:	80 83       	st	Z, r24
    246a:	80 e6       	ldi	r24, 0x60	; 96
    246c:	90 e0       	ldi	r25, 0x00	; 0
    246e:	93 83       	std	Z+3, r25	; 0x03
    2470:	82 83       	std	Z+2, r24	; 0x02
    2472:	89 a5       	ldd	r24, Y+41	; 0x29
    2474:	9a a5       	ldd	r25, Y+42	; 0x2a
    2476:	ab a5       	ldd	r26, Y+43	; 0x2b
    2478:	bc a5       	ldd	r27, Y+44	; 0x2c
    247a:	84 83       	std	Z+4, r24	; 0x04
    247c:	95 83       	std	Z+5, r25	; 0x05
    247e:	a6 83       	std	Z+6, r26	; 0x06
    2480:	b7 83       	std	Z+7, r27	; 0x07
    2482:	0e 94 8b 19 	call	0x3316	; 0x3316 <sprintf>
    2486:	8d b7       	in	r24, 0x3d	; 61
    2488:	9e b7       	in	r25, 0x3e	; 62
    248a:	08 96       	adiw	r24, 0x08	; 8
    248c:	0f b6       	in	r0, 0x3f	; 63
    248e:	f8 94       	cli
    2490:	9e bf       	out	0x3e, r25	; 62
    2492:	0f be       	out	0x3f, r0	; 63
    2494:	8d bf       	out	0x3d, r24	; 61
	LCD_voidSendString(str);
    2496:	ce 01       	movw	r24, r28
    2498:	01 96       	adiw	r24, 0x01	; 1
    249a:	0e 94 ed 11 	call	0x23da	; 0x23da <LCD_voidSendString>
}
    249e:	ac 96       	adiw	r28, 0x2c	; 44
    24a0:	0f b6       	in	r0, 0x3f	; 63
    24a2:	f8 94       	cli
    24a4:	de bf       	out	0x3e, r29	; 62
    24a6:	0f be       	out	0x3f, r0	; 63
    24a8:	cd bf       	out	0x3d, r28	; 61
    24aa:	cf 91       	pop	r28
    24ac:	df 91       	pop	r29
    24ae:	08 95       	ret

000024b0 <LCD_voidSendFloat>:

void LCD_voidSendFloat(f64 Copy_f32Data) {
    24b0:	df 93       	push	r29
    24b2:	cf 93       	push	r28
    24b4:	cd b7       	in	r28, 0x3d	; 61
    24b6:	de b7       	in	r29, 0x3e	; 62
    24b8:	2c 97       	sbiw	r28, 0x0c	; 12
    24ba:	0f b6       	in	r0, 0x3f	; 63
    24bc:	f8 94       	cli
    24be:	de bf       	out	0x3e, r29	; 62
    24c0:	0f be       	out	0x3f, r0	; 63
    24c2:	cd bf       	out	0x3d, r28	; 61
    24c4:	69 87       	std	Y+9, r22	; 0x09
    24c6:	7a 87       	std	Y+10, r23	; 0x0a
    24c8:	8b 87       	std	Y+11, r24	; 0x0b
    24ca:	9c 87       	std	Y+12, r25	; 0x0c
	s32 int_part;
	f32 frac_part;
	// separate integer and fractional parts
	int_part = (s32) Copy_f32Data;
    24cc:	69 85       	ldd	r22, Y+9	; 0x09
    24ce:	7a 85       	ldd	r23, Y+10	; 0x0a
    24d0:	8b 85       	ldd	r24, Y+11	; 0x0b
    24d2:	9c 85       	ldd	r25, Y+12	; 0x0c
    24d4:	0e 94 07 04 	call	0x80e	; 0x80e <__fixsfsi>
    24d8:	dc 01       	movw	r26, r24
    24da:	cb 01       	movw	r24, r22
    24dc:	8d 83       	std	Y+5, r24	; 0x05
    24de:	9e 83       	std	Y+6, r25	; 0x06
    24e0:	af 83       	std	Y+7, r26	; 0x07
    24e2:	b8 87       	std	Y+8, r27	; 0x08
	frac_part = Copy_f32Data - int_part;
    24e4:	6d 81       	ldd	r22, Y+5	; 0x05
    24e6:	7e 81       	ldd	r23, Y+6	; 0x06
    24e8:	8f 81       	ldd	r24, Y+7	; 0x07
    24ea:	98 85       	ldd	r25, Y+8	; 0x08
    24ec:	0e 94 a9 03 	call	0x752	; 0x752 <__floatsisf>
    24f0:	9b 01       	movw	r18, r22
    24f2:	ac 01       	movw	r20, r24
    24f4:	69 85       	ldd	r22, Y+9	; 0x09
    24f6:	7a 85       	ldd	r23, Y+10	; 0x0a
    24f8:	8b 85       	ldd	r24, Y+11	; 0x0b
    24fa:	9c 85       	ldd	r25, Y+12	; 0x0c
    24fc:	0e 94 c1 01 	call	0x382	; 0x382 <__subsf3>
    2500:	dc 01       	movw	r26, r24
    2502:	cb 01       	movw	r24, r22
    2504:	89 83       	std	Y+1, r24	; 0x01
    2506:	9a 83       	std	Y+2, r25	; 0x02
    2508:	ab 83       	std	Y+3, r26	; 0x03
    250a:	bc 83       	std	Y+4, r27	; 0x04
	frac_part = (s32) (frac_part * 1000);
    250c:	69 81       	ldd	r22, Y+1	; 0x01
    250e:	7a 81       	ldd	r23, Y+2	; 0x02
    2510:	8b 81       	ldd	r24, Y+3	; 0x03
    2512:	9c 81       	ldd	r25, Y+4	; 0x04
    2514:	20 e0       	ldi	r18, 0x00	; 0
    2516:	30 e0       	ldi	r19, 0x00	; 0
    2518:	4a e7       	ldi	r20, 0x7A	; 122
    251a:	54 e4       	ldi	r21, 0x44	; 68
    251c:	0e 94 1f 02 	call	0x43e	; 0x43e <__mulsf3>
    2520:	dc 01       	movw	r26, r24
    2522:	cb 01       	movw	r24, r22
    2524:	bc 01       	movw	r22, r24
    2526:	cd 01       	movw	r24, r26
    2528:	0e 94 07 04 	call	0x80e	; 0x80e <__fixsfsi>
    252c:	dc 01       	movw	r26, r24
    252e:	cb 01       	movw	r24, r22
    2530:	bc 01       	movw	r22, r24
    2532:	cd 01       	movw	r24, r26
    2534:	0e 94 a9 03 	call	0x752	; 0x752 <__floatsisf>
    2538:	dc 01       	movw	r26, r24
    253a:	cb 01       	movw	r24, r22
    253c:	89 83       	std	Y+1, r24	; 0x01
    253e:	9a 83       	std	Y+2, r25	; 0x02
    2540:	ab 83       	std	Y+3, r26	; 0x03
    2542:	bc 83       	std	Y+4, r27	; 0x04
	LCD_voidSendIntger(int_part);
    2544:	8d 81       	ldd	r24, Y+5	; 0x05
    2546:	9e 81       	ldd	r25, Y+6	; 0x06
    2548:	af 81       	ldd	r26, Y+7	; 0x07
    254a:	b8 85       	ldd	r27, Y+8	; 0x08
    254c:	bc 01       	movw	r22, r24
    254e:	cd 01       	movw	r24, r26
    2550:	0e 94 17 12 	call	0x242e	; 0x242e <LCD_voidSendIntger>
	LCD_voidSendChar('.');
    2554:	8e e2       	ldi	r24, 0x2E	; 46
    2556:	0e 94 14 10 	call	0x2028	; 0x2028 <LCD_voidSendChar>
	LCD_voidSendIntger(frac_part);
    255a:	69 81       	ldd	r22, Y+1	; 0x01
    255c:	7a 81       	ldd	r23, Y+2	; 0x02
    255e:	8b 81       	ldd	r24, Y+3	; 0x03
    2560:	9c 81       	ldd	r25, Y+4	; 0x04
    2562:	0e 94 07 04 	call	0x80e	; 0x80e <__fixsfsi>
    2566:	dc 01       	movw	r26, r24
    2568:	cb 01       	movw	r24, r22
    256a:	bc 01       	movw	r22, r24
    256c:	cd 01       	movw	r24, r26
    256e:	0e 94 17 12 	call	0x242e	; 0x242e <LCD_voidSendIntger>
}
    2572:	2c 96       	adiw	r28, 0x0c	; 12
    2574:	0f b6       	in	r0, 0x3f	; 63
    2576:	f8 94       	cli
    2578:	de bf       	out	0x3e, r29	; 62
    257a:	0f be       	out	0x3f, r0	; 63
    257c:	cd bf       	out	0x3d, r28	; 61
    257e:	cf 91       	pop	r28
    2580:	df 91       	pop	r29
    2582:	08 95       	ret

00002584 <LCD_voidGotoxy>:
/***************************************************************************************/
/* Description! Interface to start the writing process at certain digit in the LCD     */
/* Input      ! Y = Row position , X = Column position                                 */
/* Output     ! Nothing                                                                */
/***************************************************************************************/
void LCD_voidGotoxy(u8 Copy_u8Y, u8 Copy_u8X) {
    2584:	df 93       	push	r29
    2586:	cf 93       	push	r28
    2588:	00 d0       	rcall	.+0      	; 0x258a <LCD_voidGotoxy+0x6>
    258a:	00 d0       	rcall	.+0      	; 0x258c <LCD_voidGotoxy+0x8>
    258c:	00 d0       	rcall	.+0      	; 0x258e <LCD_voidGotoxy+0xa>
    258e:	cd b7       	in	r28, 0x3d	; 61
    2590:	de b7       	in	r29, 0x3e	; 62
    2592:	8b 83       	std	Y+3, r24	; 0x03
    2594:	6c 83       	std	Y+4, r22	; 0x04
	u8 line;

		switch (Copy_u8Y) {
    2596:	8b 81       	ldd	r24, Y+3	; 0x03
    2598:	28 2f       	mov	r18, r24
    259a:	30 e0       	ldi	r19, 0x00	; 0
    259c:	3e 83       	std	Y+6, r19	; 0x06
    259e:	2d 83       	std	Y+5, r18	; 0x05
    25a0:	8d 81       	ldd	r24, Y+5	; 0x05
    25a2:	9e 81       	ldd	r25, Y+6	; 0x06
    25a4:	81 30       	cpi	r24, 0x01	; 1
    25a6:	91 05       	cpc	r25, r1
    25a8:	b9 f0       	breq	.+46     	; 0x25d8 <LCD_voidGotoxy+0x54>
    25aa:	2d 81       	ldd	r18, Y+5	; 0x05
    25ac:	3e 81       	ldd	r19, Y+6	; 0x06
    25ae:	22 30       	cpi	r18, 0x02	; 2
    25b0:	31 05       	cpc	r19, r1
    25b2:	2c f4       	brge	.+10     	; 0x25be <LCD_voidGotoxy+0x3a>
    25b4:	8d 81       	ldd	r24, Y+5	; 0x05
    25b6:	9e 81       	ldd	r25, Y+6	; 0x06
    25b8:	00 97       	sbiw	r24, 0x00	; 0
    25ba:	61 f0       	breq	.+24     	; 0x25d4 <LCD_voidGotoxy+0x50>
    25bc:	15 c0       	rjmp	.+42     	; 0x25e8 <LCD_voidGotoxy+0x64>
    25be:	2d 81       	ldd	r18, Y+5	; 0x05
    25c0:	3e 81       	ldd	r19, Y+6	; 0x06
    25c2:	22 30       	cpi	r18, 0x02	; 2
    25c4:	31 05       	cpc	r19, r1
    25c6:	59 f0       	breq	.+22     	; 0x25de <LCD_voidGotoxy+0x5a>
    25c8:	8d 81       	ldd	r24, Y+5	; 0x05
    25ca:	9e 81       	ldd	r25, Y+6	; 0x06
    25cc:	83 30       	cpi	r24, 0x03	; 3
    25ce:	91 05       	cpc	r25, r1
    25d0:	49 f0       	breq	.+18     	; 0x25e4 <LCD_voidGotoxy+0x60>
    25d2:	0a c0       	rjmp	.+20     	; 0x25e8 <LCD_voidGotoxy+0x64>
		case 0:
			line = 0x00;
    25d4:	1a 82       	std	Y+2, r1	; 0x02
    25d6:	08 c0       	rjmp	.+16     	; 0x25e8 <LCD_voidGotoxy+0x64>

			break;
		case 1:
			line = 0x40;
    25d8:	80 e4       	ldi	r24, 0x40	; 64
    25da:	8a 83       	std	Y+2, r24	; 0x02
    25dc:	05 c0       	rjmp	.+10     	; 0x25e8 <LCD_voidGotoxy+0x64>
			break;
		case 2:
			line = 0x14;
    25de:	84 e1       	ldi	r24, 0x14	; 20
    25e0:	8a 83       	std	Y+2, r24	; 0x02
    25e2:	02 c0       	rjmp	.+4      	; 0x25e8 <LCD_voidGotoxy+0x64>
			break;
		case 3:
			line = 0x54;
    25e4:	84 e5       	ldi	r24, 0x54	; 84
    25e6:	8a 83       	std	Y+2, r24	; 0x02
			break;
		default:
			break;
		}
		u8 ddram_address = line + Copy_u8X;
    25e8:	9a 81       	ldd	r25, Y+2	; 0x02
    25ea:	8c 81       	ldd	r24, Y+4	; 0x04
    25ec:	89 0f       	add	r24, r25
    25ee:	89 83       	std	Y+1, r24	; 0x01
		LCD_voidSendCmnd(0x80 | ddram_address);
    25f0:	89 81       	ldd	r24, Y+1	; 0x01
    25f2:	80 68       	ori	r24, 0x80	; 128
    25f4:	88 2f       	mov	r24, r24
    25f6:	90 e0       	ldi	r25, 0x00	; 0
    25f8:	0e 94 93 0e 	call	0x1d26	; 0x1d26 <LCD_voidSendCmnd>
	}
    25fc:	26 96       	adiw	r28, 0x06	; 6
    25fe:	0f b6       	in	r0, 0x3f	; 63
    2600:	f8 94       	cli
    2602:	de bf       	out	0x3e, r29	; 62
    2604:	0f be       	out	0x3f, r0	; 63
    2606:	cd bf       	out	0x3d, r28	; 61
    2608:	cf 91       	pop	r28
    260a:	df 91       	pop	r29
    260c:	08 95       	ret

0000260e <LCD_voidSendExtraChar>:
/***************************************************************************************/
/* Description! Interface to write extra characters saved in the CGRAM                 */
/* Input      ! Y = Row position , X = Column position                                 */
/* Output     ! Nothing                                                                */
/***************************************************************************************/
void LCD_voidSendExtraChar(u8 Copy_u8Y, u8 Copy_u8X) {
    260e:	df 93       	push	r29
    2610:	cf 93       	push	r28
    2612:	cd b7       	in	r28, 0x3d	; 61
    2614:	de b7       	in	r29, 0x3e	; 62
    2616:	62 97       	sbiw	r28, 0x12	; 18
    2618:	0f b6       	in	r0, 0x3f	; 63
    261a:	f8 94       	cli
    261c:	de bf       	out	0x3e, r29	; 62
    261e:	0f be       	out	0x3f, r0	; 63
    2620:	cd bf       	out	0x3d, r28	; 61
    2622:	89 8b       	std	Y+17, r24	; 0x11
    2624:	6a 8b       	std	Y+18, r22	; 0x12
	u8 iteration1, iteration2;

	/*DDRAM-->CGRAM*/
	LCD_voidSendCmnd(64);
    2626:	80 e4       	ldi	r24, 0x40	; 64
    2628:	90 e0       	ldi	r25, 0x00	; 0
    262a:	0e 94 93 0e 	call	0x1d26	; 0x1d26 <LCD_voidSendCmnd>
	for (iteration1 = 0; iteration1 < 64; iteration1++) {
    262e:	18 8a       	std	Y+16, r1	; 0x10
    2630:	0c c0       	rjmp	.+24     	; 0x264a <LCD_voidSendExtraChar+0x3c>
		LCD_voidSendChar(ExtraChar[iteration1]);
    2632:	88 89       	ldd	r24, Y+16	; 0x10
    2634:	88 2f       	mov	r24, r24
    2636:	90 e0       	ldi	r25, 0x00	; 0
    2638:	fc 01       	movw	r30, r24
    263a:	e0 56       	subi	r30, 0x60	; 96
    263c:	fe 4f       	sbci	r31, 0xFE	; 254
    263e:	80 81       	ld	r24, Z
    2640:	0e 94 14 10 	call	0x2028	; 0x2028 <LCD_voidSendChar>
void LCD_voidSendExtraChar(u8 Copy_u8Y, u8 Copy_u8X) {
	u8 iteration1, iteration2;

	/*DDRAM-->CGRAM*/
	LCD_voidSendCmnd(64);
	for (iteration1 = 0; iteration1 < 64; iteration1++) {
    2644:	88 89       	ldd	r24, Y+16	; 0x10
    2646:	8f 5f       	subi	r24, 0xFF	; 255
    2648:	88 8b       	std	Y+16, r24	; 0x10
    264a:	88 89       	ldd	r24, Y+16	; 0x10
    264c:	80 34       	cpi	r24, 0x40	; 64
    264e:	88 f3       	brcs	.-30     	; 0x2632 <LCD_voidSendExtraChar+0x24>
		LCD_voidSendChar(ExtraChar[iteration1]);
	}
	/*CGRAM-->DDRAM*/
	LCD_voidSendCmnd(128);
    2650:	80 e8       	ldi	r24, 0x80	; 128
    2652:	90 e0       	ldi	r25, 0x00	; 0
    2654:	0e 94 93 0e 	call	0x1d26	; 0x1d26 <LCD_voidSendCmnd>
	LCD_voidGotoxy(Copy_u8Y, Copy_u8X);
    2658:	89 89       	ldd	r24, Y+17	; 0x11
    265a:	6a 89       	ldd	r22, Y+18	; 0x12
    265c:	0e 94 c2 12 	call	0x2584	; 0x2584 <LCD_voidGotoxy>
	/*First eight character which saved at CGRAM*/
	for (iteration2 = 0; iteration2 <= 7; iteration2++) {
    2660:	1f 86       	std	Y+15, r1	; 0x0f
    2662:	78 c0       	rjmp	.+240    	; 0x2754 <LCD_voidSendExtraChar+0x146>
		/* Write bytes of DDRAM */
		LCD_voidSendChar(iteration2);
    2664:	8f 85       	ldd	r24, Y+15	; 0x0f
    2666:	0e 94 14 10 	call	0x2028	; 0x2028 <LCD_voidSendChar>
    266a:	80 e0       	ldi	r24, 0x00	; 0
    266c:	90 e0       	ldi	r25, 0x00	; 0
    266e:	a0 ea       	ldi	r26, 0xA0	; 160
    2670:	b0 e4       	ldi	r27, 0x40	; 64
    2672:	8b 87       	std	Y+11, r24	; 0x0b
    2674:	9c 87       	std	Y+12, r25	; 0x0c
    2676:	ad 87       	std	Y+13, r26	; 0x0d
    2678:	be 87       	std	Y+14, r27	; 0x0e
 */
void
_delay_ms(double __ms)
{
	uint16_t __ticks;
	double __tmp = ((F_CPU) / 4e3) * __ms;
    267a:	6b 85       	ldd	r22, Y+11	; 0x0b
    267c:	7c 85       	ldd	r23, Y+12	; 0x0c
    267e:	8d 85       	ldd	r24, Y+13	; 0x0d
    2680:	9e 85       	ldd	r25, Y+14	; 0x0e
    2682:	20 e0       	ldi	r18, 0x00	; 0
    2684:	30 e0       	ldi	r19, 0x00	; 0
    2686:	4a ef       	ldi	r20, 0xFA	; 250
    2688:	54 e4       	ldi	r21, 0x44	; 68
    268a:	0e 94 1f 02 	call	0x43e	; 0x43e <__mulsf3>
    268e:	dc 01       	movw	r26, r24
    2690:	cb 01       	movw	r24, r22
    2692:	8f 83       	std	Y+7, r24	; 0x07
    2694:	98 87       	std	Y+8, r25	; 0x08
    2696:	a9 87       	std	Y+9, r26	; 0x09
    2698:	ba 87       	std	Y+10, r27	; 0x0a
	if (__tmp < 1.0)
    269a:	6f 81       	ldd	r22, Y+7	; 0x07
    269c:	78 85       	ldd	r23, Y+8	; 0x08
    269e:	89 85       	ldd	r24, Y+9	; 0x09
    26a0:	9a 85       	ldd	r25, Y+10	; 0x0a
    26a2:	20 e0       	ldi	r18, 0x00	; 0
    26a4:	30 e0       	ldi	r19, 0x00	; 0
    26a6:	40 e8       	ldi	r20, 0x80	; 128
    26a8:	5f e3       	ldi	r21, 0x3F	; 63
    26aa:	0e 94 79 03 	call	0x6f2	; 0x6f2 <__ltsf2>
    26ae:	88 23       	and	r24, r24
    26b0:	2c f4       	brge	.+10     	; 0x26bc <LCD_voidSendExtraChar+0xae>
		__ticks = 1;
    26b2:	81 e0       	ldi	r24, 0x01	; 1
    26b4:	90 e0       	ldi	r25, 0x00	; 0
    26b6:	9e 83       	std	Y+6, r25	; 0x06
    26b8:	8d 83       	std	Y+5, r24	; 0x05
    26ba:	3f c0       	rjmp	.+126    	; 0x273a <LCD_voidSendExtraChar+0x12c>
	else if (__tmp > 65535)
    26bc:	6f 81       	ldd	r22, Y+7	; 0x07
    26be:	78 85       	ldd	r23, Y+8	; 0x08
    26c0:	89 85       	ldd	r24, Y+9	; 0x09
    26c2:	9a 85       	ldd	r25, Y+10	; 0x0a
    26c4:	20 e0       	ldi	r18, 0x00	; 0
    26c6:	3f ef       	ldi	r19, 0xFF	; 255
    26c8:	4f e7       	ldi	r20, 0x7F	; 127
    26ca:	57 e4       	ldi	r21, 0x47	; 71
    26cc:	0e 94 19 03 	call	0x632	; 0x632 <__gtsf2>
    26d0:	18 16       	cp	r1, r24
    26d2:	4c f5       	brge	.+82     	; 0x2726 <LCD_voidSendExtraChar+0x118>
	{
		//	__ticks = requested delay in 1/10 ms
		__ticks = (uint16_t) (__ms * 10.0);
    26d4:	6b 85       	ldd	r22, Y+11	; 0x0b
    26d6:	7c 85       	ldd	r23, Y+12	; 0x0c
    26d8:	8d 85       	ldd	r24, Y+13	; 0x0d
    26da:	9e 85       	ldd	r25, Y+14	; 0x0e
    26dc:	20 e0       	ldi	r18, 0x00	; 0
    26de:	30 e0       	ldi	r19, 0x00	; 0
    26e0:	40 e2       	ldi	r20, 0x20	; 32
    26e2:	51 e4       	ldi	r21, 0x41	; 65
    26e4:	0e 94 1f 02 	call	0x43e	; 0x43e <__mulsf3>
    26e8:	dc 01       	movw	r26, r24
    26ea:	cb 01       	movw	r24, r22
    26ec:	bc 01       	movw	r22, r24
    26ee:	cd 01       	movw	r24, r26
    26f0:	0e 94 49 00 	call	0x92	; 0x92 <__fixunssfsi>
    26f4:	dc 01       	movw	r26, r24
    26f6:	cb 01       	movw	r24, r22
    26f8:	9e 83       	std	Y+6, r25	; 0x06
    26fa:	8d 83       	std	Y+5, r24	; 0x05
    26fc:	0f c0       	rjmp	.+30     	; 0x271c <LCD_voidSendExtraChar+0x10e>
    26fe:	88 ec       	ldi	r24, 0xC8	; 200
    2700:	90 e0       	ldi	r25, 0x00	; 0
    2702:	9c 83       	std	Y+4, r25	; 0x04
    2704:	8b 83       	std	Y+3, r24	; 0x03
    2706:	8b 81       	ldd	r24, Y+3	; 0x03
    2708:	9c 81       	ldd	r25, Y+4	; 0x04
    270a:	01 97       	sbiw	r24, 0x01	; 1
    270c:	f1 f7       	brne	.-4      	; 0x270a <LCD_voidSendExtraChar+0xfc>
    270e:	9c 83       	std	Y+4, r25	; 0x04
    2710:	8b 83       	std	Y+3, r24	; 0x03
		while(__ticks)
		{
			// wait 1/10 ms
			_delay_loop_2(((F_CPU) / 4e3) / 10);
			__ticks --;
    2712:	8d 81       	ldd	r24, Y+5	; 0x05
    2714:	9e 81       	ldd	r25, Y+6	; 0x06
    2716:	01 97       	sbiw	r24, 0x01	; 1
    2718:	9e 83       	std	Y+6, r25	; 0x06
    271a:	8d 83       	std	Y+5, r24	; 0x05
		__ticks = 1;
	else if (__tmp > 65535)
	{
		//	__ticks = requested delay in 1/10 ms
		__ticks = (uint16_t) (__ms * 10.0);
		while(__ticks)
    271c:	8d 81       	ldd	r24, Y+5	; 0x05
    271e:	9e 81       	ldd	r25, Y+6	; 0x06
    2720:	00 97       	sbiw	r24, 0x00	; 0
    2722:	69 f7       	brne	.-38     	; 0x26fe <LCD_voidSendExtraChar+0xf0>
    2724:	14 c0       	rjmp	.+40     	; 0x274e <LCD_voidSendExtraChar+0x140>
			__ticks --;
		}
		return;
	}
	else
		__ticks = (uint16_t)__tmp;
    2726:	6f 81       	ldd	r22, Y+7	; 0x07
    2728:	78 85       	ldd	r23, Y+8	; 0x08
    272a:	89 85       	ldd	r24, Y+9	; 0x09
    272c:	9a 85       	ldd	r25, Y+10	; 0x0a
    272e:	0e 94 49 00 	call	0x92	; 0x92 <__fixunssfsi>
    2732:	dc 01       	movw	r26, r24
    2734:	cb 01       	movw	r24, r22
    2736:	9e 83       	std	Y+6, r25	; 0x06
    2738:	8d 83       	std	Y+5, r24	; 0x05
    273a:	8d 81       	ldd	r24, Y+5	; 0x05
    273c:	9e 81       	ldd	r25, Y+6	; 0x06
    273e:	9a 83       	std	Y+2, r25	; 0x02
    2740:	89 83       	std	Y+1, r24	; 0x01
    2742:	89 81       	ldd	r24, Y+1	; 0x01
    2744:	9a 81       	ldd	r25, Y+2	; 0x02
    2746:	01 97       	sbiw	r24, 0x01	; 1
    2748:	f1 f7       	brne	.-4      	; 0x2746 <LCD_voidSendExtraChar+0x138>
    274a:	9a 83       	std	Y+2, r25	; 0x02
    274c:	89 83       	std	Y+1, r24	; 0x01
	}
	/*CGRAM-->DDRAM*/
	LCD_voidSendCmnd(128);
	LCD_voidGotoxy(Copy_u8Y, Copy_u8X);
	/*First eight character which saved at CGRAM*/
	for (iteration2 = 0; iteration2 <= 7; iteration2++) {
    274e:	8f 85       	ldd	r24, Y+15	; 0x0f
    2750:	8f 5f       	subi	r24, 0xFF	; 255
    2752:	8f 87       	std	Y+15, r24	; 0x0f
    2754:	8f 85       	ldd	r24, Y+15	; 0x0f
    2756:	88 30       	cpi	r24, 0x08	; 8
    2758:	08 f4       	brcc	.+2      	; 0x275c <LCD_voidSendExtraChar+0x14e>
    275a:	84 cf       	rjmp	.-248    	; 0x2664 <LCD_voidSendExtraChar+0x56>
		/* Write bytes of DDRAM */
		LCD_voidSendChar(iteration2);

		_delay_ms(5);
	}
}
    275c:	62 96       	adiw	r28, 0x12	; 18
    275e:	0f b6       	in	r0, 0x3f	; 63
    2760:	f8 94       	cli
    2762:	de bf       	out	0x3e, r29	; 62
    2764:	0f be       	out	0x3f, r0	; 63
    2766:	cd bf       	out	0x3d, r28	; 61
    2768:	cf 91       	pop	r28
    276a:	df 91       	pop	r29
    276c:	08 95       	ret

0000276e <LCD_voidWriteSpecialCharacter>:

/*  New */
void LCD_voidWriteSpecialCharacter(u8 *Copy_pu8Pattern, u8 Copy_u8PatternNumber,
		u8 Copy_u8XPos, u8 Copy_u8YPos) {
    276e:	df 93       	push	r29
    2770:	cf 93       	push	r28
    2772:	cd b7       	in	r28, 0x3d	; 61
    2774:	de b7       	in	r29, 0x3e	; 62
    2776:	27 97       	sbiw	r28, 0x07	; 7
    2778:	0f b6       	in	r0, 0x3f	; 63
    277a:	f8 94       	cli
    277c:	de bf       	out	0x3e, r29	; 62
    277e:	0f be       	out	0x3f, r0	; 63
    2780:	cd bf       	out	0x3d, r28	; 61
    2782:	9c 83       	std	Y+4, r25	; 0x04
    2784:	8b 83       	std	Y+3, r24	; 0x03
    2786:	6d 83       	std	Y+5, r22	; 0x05
    2788:	4e 83       	std	Y+6, r20	; 0x06
    278a:	2f 83       	std	Y+7, r18	; 0x07
	u8 Local_u8Address, Local_u8PatternCounter;

	/*1- Calculate the required address of CGRAM*/
	Local_u8Address = Copy_u8PatternNumber * 8;
    278c:	8d 81       	ldd	r24, Y+5	; 0x05
    278e:	88 2f       	mov	r24, r24
    2790:	90 e0       	ldi	r25, 0x00	; 0
    2792:	88 0f       	add	r24, r24
    2794:	99 1f       	adc	r25, r25
    2796:	88 0f       	add	r24, r24
    2798:	99 1f       	adc	r25, r25
    279a:	88 0f       	add	r24, r24
    279c:	99 1f       	adc	r25, r25
    279e:	8a 83       	std	Y+2, r24	; 0x02

	/*2- Set CGRAM Address with bit 6 equal to 1 and bit 7 equal to 0*/
	LCD_voidSendCmnd(Local_u8Address + 64);
    27a0:	8a 81       	ldd	r24, Y+2	; 0x02
    27a2:	88 2f       	mov	r24, r24
    27a4:	90 e0       	ldi	r25, 0x00	; 0
    27a6:	80 5c       	subi	r24, 0xC0	; 192
    27a8:	9f 4f       	sbci	r25, 0xFF	; 255
    27aa:	0e 94 93 0e 	call	0x1d26	; 0x1d26 <LCD_voidSendCmnd>

	/*3- write the required pattern inside the CGRAM*/
	for (Local_u8PatternCounter = 0; Local_u8PatternCounter < 8;
    27ae:	19 82       	std	Y+1, r1	; 0x01
    27b0:	0e c0       	rjmp	.+28     	; 0x27ce <LCD_voidWriteSpecialCharacter+0x60>
			Local_u8PatternCounter++) {
		LCD_voidSendChar(Copy_pu8Pattern[Local_u8PatternCounter]);
    27b2:	89 81       	ldd	r24, Y+1	; 0x01
    27b4:	28 2f       	mov	r18, r24
    27b6:	30 e0       	ldi	r19, 0x00	; 0
    27b8:	8b 81       	ldd	r24, Y+3	; 0x03
    27ba:	9c 81       	ldd	r25, Y+4	; 0x04
    27bc:	fc 01       	movw	r30, r24
    27be:	e2 0f       	add	r30, r18
    27c0:	f3 1f       	adc	r31, r19
    27c2:	80 81       	ld	r24, Z
    27c4:	0e 94 14 10 	call	0x2028	; 0x2028 <LCD_voidSendChar>
	/*2- Set CGRAM Address with bit 6 equal to 1 and bit 7 equal to 0*/
	LCD_voidSendCmnd(Local_u8Address + 64);

	/*3- write the required pattern inside the CGRAM*/
	for (Local_u8PatternCounter = 0; Local_u8PatternCounter < 8;
			Local_u8PatternCounter++) {
    27c8:	89 81       	ldd	r24, Y+1	; 0x01
    27ca:	8f 5f       	subi	r24, 0xFF	; 255
    27cc:	89 83       	std	Y+1, r24	; 0x01

	/*2- Set CGRAM Address with bit 6 equal to 1 and bit 7 equal to 0*/
	LCD_voidSendCmnd(Local_u8Address + 64);

	/*3- write the required pattern inside the CGRAM*/
	for (Local_u8PatternCounter = 0; Local_u8PatternCounter < 8;
    27ce:	89 81       	ldd	r24, Y+1	; 0x01
    27d0:	88 30       	cpi	r24, 0x08	; 8
    27d2:	78 f3       	brcs	.-34     	; 0x27b2 <LCD_voidWriteSpecialCharacter+0x44>
			Local_u8PatternCounter++) {
		LCD_voidSendChar(Copy_pu8Pattern[Local_u8PatternCounter]);
	}

	/*4- shift the address counter to the DDRAM*/
	LCD_voidGotoxy(Copy_u8XPos, Copy_u8YPos);
    27d4:	8e 81       	ldd	r24, Y+6	; 0x06
    27d6:	6f 81       	ldd	r22, Y+7	; 0x07
    27d8:	0e 94 c2 12 	call	0x2584	; 0x2584 <LCD_voidGotoxy>

	/*5- Display the CGRAM pattern on the LCD*/
	LCD_voidSendChar(Copy_u8PatternNumber);
    27dc:	8d 81       	ldd	r24, Y+5	; 0x05
    27de:	0e 94 14 10 	call	0x2028	; 0x2028 <LCD_voidSendChar>

}
    27e2:	27 96       	adiw	r28, 0x07	; 7
    27e4:	0f b6       	in	r0, 0x3f	; 63
    27e6:	f8 94       	cli
    27e8:	de bf       	out	0x3e, r29	; 62
    27ea:	0f be       	out	0x3f, r0	; 63
    27ec:	cd bf       	out	0x3d, r28	; 61
    27ee:	cf 91       	pop	r28
    27f0:	df 91       	pop	r29
    27f2:	08 95       	ret

000027f4 <RTC_DEC2BCD>:

//RTC_t G_rtc;


u8 RTC_DEC2BCD(u8 val)
{
    27f4:	df 93       	push	r29
    27f6:	cf 93       	push	r28
    27f8:	0f 92       	push	r0
    27fa:	cd b7       	in	r28, 0x3d	; 61
    27fc:	de b7       	in	r29, 0x3e	; 62
    27fe:	89 83       	std	Y+1, r24	; 0x01
	return (val + 6*(val/10));
    2800:	89 81       	ldd	r24, Y+1	; 0x01
    2802:	9a e0       	ldi	r25, 0x0A	; 10
    2804:	69 2f       	mov	r22, r25
    2806:	0e 94 0b 19 	call	0x3216	; 0x3216 <__udivmodqi4>
    280a:	28 2f       	mov	r18, r24
    280c:	30 e0       	ldi	r19, 0x00	; 0
    280e:	c9 01       	movw	r24, r18
    2810:	88 0f       	add	r24, r24
    2812:	99 1f       	adc	r25, r25
    2814:	82 0f       	add	r24, r18
    2816:	93 1f       	adc	r25, r19
    2818:	88 0f       	add	r24, r24
    281a:	99 1f       	adc	r25, r25
    281c:	98 2f       	mov	r25, r24
    281e:	89 81       	ldd	r24, Y+1	; 0x01
    2820:	89 0f       	add	r24, r25
}
    2822:	0f 90       	pop	r0
    2824:	cf 91       	pop	r28
    2826:	df 91       	pop	r29
    2828:	08 95       	ret

0000282a <RTC_BCD2DEC>:

u8 RTC_BCD2DEC(u8 val)
{
    282a:	df 93       	push	r29
    282c:	cf 93       	push	r28
    282e:	0f 92       	push	r0
    2830:	cd b7       	in	r28, 0x3d	; 61
    2832:	de b7       	in	r29, 0x3e	; 62
    2834:	89 83       	std	Y+1, r24	; 0x01
	return (val - 6*(val>>4));
    2836:	89 81       	ldd	r24, Y+1	; 0x01
    2838:	82 95       	swap	r24
    283a:	8f 70       	andi	r24, 0x0F	; 15
    283c:	28 2f       	mov	r18, r24
    283e:	30 e0       	ldi	r19, 0x00	; 0
    2840:	c9 01       	movw	r24, r18
    2842:	88 0f       	add	r24, r24
    2844:	99 1f       	adc	r25, r25
    2846:	82 0f       	add	r24, r18
    2848:	93 1f       	adc	r25, r19
    284a:	88 0f       	add	r24, r24
    284c:	99 1f       	adc	r25, r25
    284e:	90 95       	com	r25
    2850:	81 95       	neg	r24
    2852:	9f 4f       	sbci	r25, 0xFF	; 255
    2854:	98 2f       	mov	r25, r24
    2856:	89 81       	ldd	r24, Y+1	; 0x01
    2858:	89 0f       	add	r24, r25
}
    285a:	0f 90       	pop	r0
    285c:	cf 91       	pop	r28
    285e:	df 91       	pop	r29
    2860:	08 95       	ret

00002862 <RTC_vidInit>:

void RTC_vidInit(void)
{
    2862:	df 93       	push	r29
    2864:	cf 93       	push	r28
    2866:	cd b7       	in	r28, 0x3d	; 61
    2868:	de b7       	in	r29, 0x3e	; 62

	TWI_vidInit();
    286a:	0e 94 c1 0a 	call	0x1582	; 0x1582 <TWI_vidInit>
	TWI_vidSendStart();
    286e:	0e 94 f3 0a 	call	0x15e6	; 0x15e6 <TWI_vidSendStart>
	/*Sending address of DS1307 RTC module*/
	TWI_vidSendByte(0xd0);
    2872:	80 ed       	ldi	r24, 0xD0	; 208
    2874:	0e 94 03 0b 	call	0x1606	; 0x1606 <TWI_vidSendByte>
	/*Sending address of control register*/
	TWI_vidSendByte(0x07);
    2878:	87 e0       	ldi	r24, 0x07	; 7
    287a:	0e 94 03 0b 	call	0x1606	; 0x1606 <TWI_vidSendByte>
	TWI_vidSendByte(0x00);
    287e:	80 e0       	ldi	r24, 0x00	; 0
    2880:	0e 94 03 0b 	call	0x1606	; 0x1606 <TWI_vidSendByte>

	TWI_vidSendStop();
    2884:	0e 94 1a 0b 	call	0x1634	; 0x1634 <TWI_vidSendStop>

}
    2888:	cf 91       	pop	r28
    288a:	df 91       	pop	r29
    288c:	08 95       	ret

0000288e <RTC_vidSetTime>:

/*Write time to RTC: Complete*/
void RTC_vidSetTime(RTC_t * rtc)
{
    288e:	df 93       	push	r29
    2890:	cf 93       	push	r28
    2892:	00 d0       	rcall	.+0      	; 0x2894 <RTC_vidSetTime+0x6>
    2894:	0f 92       	push	r0
    2896:	cd b7       	in	r28, 0x3d	; 61
    2898:	de b7       	in	r29, 0x3e	; 62
    289a:	9b 83       	std	Y+3, r25	; 0x03
    289c:	8a 83       	std	Y+2, r24	; 0x02
	u8 Local_u8BCDHours;
	TWI_vidSendStart();
    289e:	0e 94 f3 0a 	call	0x15e6	; 0x15e6 <TWI_vidSendStart>
	TWI_vidSendByte(RTC_MODE_WRITE);
    28a2:	80 ed       	ldi	r24, 0xD0	; 208
    28a4:	0e 94 03 0b 	call	0x1606	; 0x1606 <TWI_vidSendByte>
	TWI_vidSendByte(0x00);
    28a8:	80 e0       	ldi	r24, 0x00	; 0
    28aa:	0e 94 03 0b 	call	0x1606	; 0x1606 <TWI_vidSendByte>
	TWI_vidSendByte(RTC_DEC2BCD(rtc->u8Seconds));
    28ae:	ea 81       	ldd	r30, Y+2	; 0x02
    28b0:	fb 81       	ldd	r31, Y+3	; 0x03
    28b2:	80 81       	ld	r24, Z
    28b4:	0e 94 fa 13 	call	0x27f4	; 0x27f4 <RTC_DEC2BCD>
    28b8:	0e 94 03 0b 	call	0x1606	; 0x1606 <TWI_vidSendByte>
	TWI_vidSendByte(RTC_DEC2BCD(rtc->u8Minutes));
    28bc:	ea 81       	ldd	r30, Y+2	; 0x02
    28be:	fb 81       	ldd	r31, Y+3	; 0x03
    28c0:	81 81       	ldd	r24, Z+1	; 0x01
    28c2:	0e 94 fa 13 	call	0x27f4	; 0x27f4 <RTC_DEC2BCD>
    28c6:	0e 94 03 0b 	call	0x1606	; 0x1606 <TWI_vidSendByte>

	Local_u8BCDHours=RTC_DEC2BCD(rtc->u8Hours);
    28ca:	ea 81       	ldd	r30, Y+2	; 0x02
    28cc:	fb 81       	ldd	r31, Y+3	; 0x03
    28ce:	82 81       	ldd	r24, Z+2	; 0x02
    28d0:	0e 94 fa 13 	call	0x27f4	; 0x27f4 <RTC_DEC2BCD>
    28d4:	89 83       	std	Y+1, r24	; 0x01
	#if RTC_u8_Mode == RTC_u8_HOURS_12_MODE
	Local_u8BCDHours |= (1<<6);
    28d6:	89 81       	ldd	r24, Y+1	; 0x01
    28d8:	80 64       	ori	r24, 0x40	; 64
    28da:	89 83       	std	Y+1, r24	; 0x01
	#endif

	#if RTC_u8_AM_PM == RTC_u8_PM
		Local_u8BCDHours &= ~(1<<5);
	#elif RTC_u8_AM_PM == RTC_u8_AM
		Local_u8BCDHours |= (1<<5);
    28dc:	89 81       	ldd	r24, Y+1	; 0x01
    28de:	80 62       	ori	r24, 0x20	; 32
    28e0:	89 83       	std	Y+1, r24	; 0x01
	#endif

	TWI_vidSendByte(Local_u8BCDHours);
    28e2:	89 81       	ldd	r24, Y+1	; 0x01
    28e4:	0e 94 03 0b 	call	0x1606	; 0x1606 <TWI_vidSendByte>

	TWI_vidSendByte(0x00);
    28e8:	80 e0       	ldi	r24, 0x00	; 0
    28ea:	0e 94 03 0b 	call	0x1606	; 0x1606 <TWI_vidSendByte>

	TWI_vidSendStop();
    28ee:	0e 94 1a 0b 	call	0x1634	; 0x1634 <TWI_vidSendStop>
}
    28f2:	0f 90       	pop	r0
    28f4:	0f 90       	pop	r0
    28f6:	0f 90       	pop	r0
    28f8:	cf 91       	pop	r28
    28fa:	df 91       	pop	r29
    28fc:	08 95       	ret

000028fe <RTC_vidGetTime>:

void RTC_vidGetTime(RTC_t * rtc)
{
    28fe:	df 93       	push	r29
    2900:	cf 93       	push	r28
    2902:	00 d0       	rcall	.+0      	; 0x2904 <RTC_vidGetTime+0x6>
    2904:	cd b7       	in	r28, 0x3d	; 61
    2906:	de b7       	in	r29, 0x3e	; 62
    2908:	9a 83       	std	Y+2, r25	; 0x02
    290a:	89 83       	std	Y+1, r24	; 0x01
	TWI_vidSendStart();
    290c:	0e 94 f3 0a 	call	0x15e6	; 0x15e6 <TWI_vidSendStart>
	TWI_vidSendByte(RTC_MODE_WRITE);
    2910:	80 ed       	ldi	r24, 0xD0	; 208
    2912:	0e 94 03 0b 	call	0x1606	; 0x1606 <TWI_vidSendByte>
	TWI_vidSendByte(0x00);
    2916:	80 e0       	ldi	r24, 0x00	; 0
    2918:	0e 94 03 0b 	call	0x1606	; 0x1606 <TWI_vidSendByte>
	TWI_vidSendStop();
    291c:	0e 94 1a 0b 	call	0x1634	; 0x1634 <TWI_vidSendStop>

	TWI_vidSendStart();
    2920:	0e 94 f3 0a 	call	0x15e6	; 0x15e6 <TWI_vidSendStart>
	TWI_vidSendByte(RTC_MODE_READ);
    2924:	81 ed       	ldi	r24, 0xD1	; 209
    2926:	0e 94 03 0b 	call	0x1606	; 0x1606 <TWI_vidSendByte>

	rtc->u8Seconds = RTC_BCD2DEC(TWI_u8ReceiveWithAck());
    292a:	0e 94 25 0b 	call	0x164a	; 0x164a <TWI_u8ReceiveWithAck>
    292e:	0e 94 15 14 	call	0x282a	; 0x282a <RTC_BCD2DEC>
    2932:	e9 81       	ldd	r30, Y+1	; 0x01
    2934:	fa 81       	ldd	r31, Y+2	; 0x02
    2936:	80 83       	st	Z, r24
	TWI_u8CheckAck(0x01);
    2938:	81 e0       	ldi	r24, 0x01	; 1
    293a:	0e 94 4b 0b 	call	0x1696	; 0x1696 <TWI_u8CheckAck>
	rtc->u8Minutes = RTC_BCD2DEC(TWI_u8ReceiveWithAck());
    293e:	0e 94 25 0b 	call	0x164a	; 0x164a <TWI_u8ReceiveWithAck>
    2942:	0e 94 15 14 	call	0x282a	; 0x282a <RTC_BCD2DEC>
    2946:	e9 81       	ldd	r30, Y+1	; 0x01
    2948:	fa 81       	ldd	r31, Y+2	; 0x02
    294a:	81 83       	std	Z+1, r24	; 0x01
	TWI_u8CheckAck(0x01);
    294c:	81 e0       	ldi	r24, 0x01	; 1
    294e:	0e 94 4b 0b 	call	0x1696	; 0x1696 <TWI_u8CheckAck>
	rtc->u8Hours =RTC_BCD2DEC((TWI_u8ReceiveWithNoAck() & 0b00011111));
    2952:	0e 94 38 0b 	call	0x1670	; 0x1670 <TWI_u8ReceiveWithNoAck>
    2956:	8f 71       	andi	r24, 0x1F	; 31
    2958:	0e 94 15 14 	call	0x282a	; 0x282a <RTC_BCD2DEC>
    295c:	e9 81       	ldd	r30, Y+1	; 0x01
    295e:	fa 81       	ldd	r31, Y+2	; 0x02
    2960:	82 83       	std	Z+2, r24	; 0x02

	TWI_vidSendStop();
    2962:	0e 94 1a 0b 	call	0x1634	; 0x1634 <TWI_vidSendStop>
}
    2966:	0f 90       	pop	r0
    2968:	0f 90       	pop	r0
    296a:	cf 91       	pop	r28
    296c:	df 91       	pop	r29
    296e:	08 95       	ret

00002970 <RTC_vidSetDate>:

void RTC_vidSetDate(RTC_t * rtc)
{
    2970:	df 93       	push	r29
    2972:	cf 93       	push	r28
    2974:	00 d0       	rcall	.+0      	; 0x2976 <RTC_vidSetDate+0x6>
    2976:	cd b7       	in	r28, 0x3d	; 61
    2978:	de b7       	in	r29, 0x3e	; 62
    297a:	9a 83       	std	Y+2, r25	; 0x02
    297c:	89 83       	std	Y+1, r24	; 0x01
	TWI_vidSendStart();
    297e:	0e 94 f3 0a 	call	0x15e6	; 0x15e6 <TWI_vidSendStart>
	TWI_vidSendByte(RTC_MODE_WRITE);
    2982:	80 ed       	ldi	r24, 0xD0	; 208
    2984:	0e 94 03 0b 	call	0x1606	; 0x1606 <TWI_vidSendByte>
	TWI_vidSendByte(0x04);
    2988:	84 e0       	ldi	r24, 0x04	; 4
    298a:	0e 94 03 0b 	call	0x1606	; 0x1606 <TWI_vidSendByte>
	TWI_vidSendByte(rtc->u8Days);
    298e:	e9 81       	ldd	r30, Y+1	; 0x01
    2990:	fa 81       	ldd	r31, Y+2	; 0x02
    2992:	84 81       	ldd	r24, Z+4	; 0x04
    2994:	0e 94 03 0b 	call	0x1606	; 0x1606 <TWI_vidSendByte>
	TWI_vidSendByte(rtc->u8Months);
    2998:	e9 81       	ldd	r30, Y+1	; 0x01
    299a:	fa 81       	ldd	r31, Y+2	; 0x02
    299c:	85 81       	ldd	r24, Z+5	; 0x05
    299e:	0e 94 03 0b 	call	0x1606	; 0x1606 <TWI_vidSendByte>
	TWI_vidSendByte(rtc->u8Years);
    29a2:	e9 81       	ldd	r30, Y+1	; 0x01
    29a4:	fa 81       	ldd	r31, Y+2	; 0x02
    29a6:	86 81       	ldd	r24, Z+6	; 0x06
    29a8:	97 81       	ldd	r25, Z+7	; 0x07
    29aa:	0e 94 03 0b 	call	0x1606	; 0x1606 <TWI_vidSendByte>
	TWI_vidSendByte(0x00);
    29ae:	80 e0       	ldi	r24, 0x00	; 0
    29b0:	0e 94 03 0b 	call	0x1606	; 0x1606 <TWI_vidSendByte>
	TWI_vidSendStop();
    29b4:	0e 94 1a 0b 	call	0x1634	; 0x1634 <TWI_vidSendStop>
}
    29b8:	0f 90       	pop	r0
    29ba:	0f 90       	pop	r0
    29bc:	cf 91       	pop	r28
    29be:	df 91       	pop	r29
    29c0:	08 95       	ret

000029c2 <RTC_vidGetDate>:

void RTC_vidGetDate(RTC_t * rtc)
{
    29c2:	df 93       	push	r29
    29c4:	cf 93       	push	r28
    29c6:	00 d0       	rcall	.+0      	; 0x29c8 <RTC_vidGetDate+0x6>
    29c8:	cd b7       	in	r28, 0x3d	; 61
    29ca:	de b7       	in	r29, 0x3e	; 62
    29cc:	9a 83       	std	Y+2, r25	; 0x02
    29ce:	89 83       	std	Y+1, r24	; 0x01
	TWI_vidSendStart();
    29d0:	0e 94 f3 0a 	call	0x15e6	; 0x15e6 <TWI_vidSendStart>
	TWI_vidSendByte(RTC_MODE_WRITE);
    29d4:	80 ed       	ldi	r24, 0xD0	; 208
    29d6:	0e 94 03 0b 	call	0x1606	; 0x1606 <TWI_vidSendByte>
	TWI_vidSendByte(0x04);
    29da:	84 e0       	ldi	r24, 0x04	; 4
    29dc:	0e 94 03 0b 	call	0x1606	; 0x1606 <TWI_vidSendByte>
	TWI_vidSendStop();
    29e0:	0e 94 1a 0b 	call	0x1634	; 0x1634 <TWI_vidSendStop>

	TWI_vidSendStart();
    29e4:	0e 94 f3 0a 	call	0x15e6	; 0x15e6 <TWI_vidSendStart>
	TWI_vidSendByte(RTC_MODE_READ);
    29e8:	81 ed       	ldi	r24, 0xD1	; 209
    29ea:	0e 94 03 0b 	call	0x1606	; 0x1606 <TWI_vidSendByte>

	rtc->u8Days = TWI_u8ReceiveWithAck();
    29ee:	0e 94 25 0b 	call	0x164a	; 0x164a <TWI_u8ReceiveWithAck>
    29f2:	e9 81       	ldd	r30, Y+1	; 0x01
    29f4:	fa 81       	ldd	r31, Y+2	; 0x02
    29f6:	84 83       	std	Z+4, r24	; 0x04
	TWI_u8CheckAck(0x01);
    29f8:	81 e0       	ldi	r24, 0x01	; 1
    29fa:	0e 94 4b 0b 	call	0x1696	; 0x1696 <TWI_u8CheckAck>
	rtc->u8Months = TWI_u8ReceiveWithAck();
    29fe:	0e 94 25 0b 	call	0x164a	; 0x164a <TWI_u8ReceiveWithAck>
    2a02:	e9 81       	ldd	r30, Y+1	; 0x01
    2a04:	fa 81       	ldd	r31, Y+2	; 0x02
    2a06:	85 83       	std	Z+5, r24	; 0x05
	TWI_u8CheckAck(0x01);
    2a08:	81 e0       	ldi	r24, 0x01	; 1
    2a0a:	0e 94 4b 0b 	call	0x1696	; 0x1696 <TWI_u8CheckAck>
	rtc->u8Years = TWI_u8ReceiveWithNoAck();
    2a0e:	0e 94 38 0b 	call	0x1670	; 0x1670 <TWI_u8ReceiveWithNoAck>
    2a12:	88 2f       	mov	r24, r24
    2a14:	90 e0       	ldi	r25, 0x00	; 0
    2a16:	e9 81       	ldd	r30, Y+1	; 0x01
    2a18:	fa 81       	ldd	r31, Y+2	; 0x02
    2a1a:	97 83       	std	Z+7, r25	; 0x07
    2a1c:	86 83       	std	Z+6, r24	; 0x06

	TWI_vidSendStop();
    2a1e:	0e 94 1a 0b 	call	0x1634	; 0x1634 <TWI_vidSendStop>

}
    2a22:	0f 90       	pop	r0
    2a24:	0f 90       	pop	r0
    2a26:	cf 91       	pop	r28
    2a28:	df 91       	pop	r29
    2a2a:	08 95       	ret

00002a2c <RTC_vidSetDayOfWeek>:

void RTC_vidSetDayOfWeek(RTC_t * rtc)
{
    2a2c:	df 93       	push	r29
    2a2e:	cf 93       	push	r28
    2a30:	00 d0       	rcall	.+0      	; 0x2a32 <RTC_vidSetDayOfWeek+0x6>
    2a32:	cd b7       	in	r28, 0x3d	; 61
    2a34:	de b7       	in	r29, 0x3e	; 62
    2a36:	9a 83       	std	Y+2, r25	; 0x02
    2a38:	89 83       	std	Y+1, r24	; 0x01
	TWI_vidSendStart();
    2a3a:	0e 94 f3 0a 	call	0x15e6	; 0x15e6 <TWI_vidSendStart>
	TWI_vidSendByte(RTC_MODE_WRITE);
    2a3e:	80 ed       	ldi	r24, 0xD0	; 208
    2a40:	0e 94 03 0b 	call	0x1606	; 0x1606 <TWI_vidSendByte>
	TWI_vidSendByte(0x03);
    2a44:	83 e0       	ldi	r24, 0x03	; 3
    2a46:	0e 94 03 0b 	call	0x1606	; 0x1606 <TWI_vidSendByte>

	TWI_vidSendByte(rtc->u8DayOfWeek);
    2a4a:	e9 81       	ldd	r30, Y+1	; 0x01
    2a4c:	fa 81       	ldd	r31, Y+2	; 0x02
    2a4e:	83 81       	ldd	r24, Z+3	; 0x03
    2a50:	0e 94 03 0b 	call	0x1606	; 0x1606 <TWI_vidSendByte>
	TWI_vidSendStop();
    2a54:	0e 94 1a 0b 	call	0x1634	; 0x1634 <TWI_vidSendStop>
}
    2a58:	0f 90       	pop	r0
    2a5a:	0f 90       	pop	r0
    2a5c:	cf 91       	pop	r28
    2a5e:	df 91       	pop	r29
    2a60:	08 95       	ret

00002a62 <RTC_vidGetDayOfWeek>:

void RTC_vidGetDayOfWeek(RTC_t * rtc)
{
    2a62:	df 93       	push	r29
    2a64:	cf 93       	push	r28
    2a66:	00 d0       	rcall	.+0      	; 0x2a68 <RTC_vidGetDayOfWeek+0x6>
    2a68:	cd b7       	in	r28, 0x3d	; 61
    2a6a:	de b7       	in	r29, 0x3e	; 62
    2a6c:	9a 83       	std	Y+2, r25	; 0x02
    2a6e:	89 83       	std	Y+1, r24	; 0x01
	TWI_vidSendStart();
    2a70:	0e 94 f3 0a 	call	0x15e6	; 0x15e6 <TWI_vidSendStart>
	TWI_vidSendByte(RTC_MODE_WRITE);
    2a74:	80 ed       	ldi	r24, 0xD0	; 208
    2a76:	0e 94 03 0b 	call	0x1606	; 0x1606 <TWI_vidSendByte>
	TWI_vidSendByte(0x03);
    2a7a:	83 e0       	ldi	r24, 0x03	; 3
    2a7c:	0e 94 03 0b 	call	0x1606	; 0x1606 <TWI_vidSendByte>
	TWI_vidSendStop();
    2a80:	0e 94 1a 0b 	call	0x1634	; 0x1634 <TWI_vidSendStop>

	TWI_vidSendStart();
    2a84:	0e 94 f3 0a 	call	0x15e6	; 0x15e6 <TWI_vidSendStart>
	TWI_vidSendByte(RTC_MODE_READ);
    2a88:	81 ed       	ldi	r24, 0xD1	; 209
    2a8a:	0e 94 03 0b 	call	0x1606	; 0x1606 <TWI_vidSendByte>
	rtc->u8DayOfWeek = TWI_u8ReceiveWithNoAck();
    2a8e:	0e 94 38 0b 	call	0x1670	; 0x1670 <TWI_u8ReceiveWithNoAck>
    2a92:	e9 81       	ldd	r30, Y+1	; 0x01
    2a94:	fa 81       	ldd	r31, Y+2	; 0x02
    2a96:	83 83       	std	Z+3, r24	; 0x03
	TWI_vidSendStop();
    2a98:	0e 94 1a 0b 	call	0x1634	; 0x1634 <TWI_vidSendStop>

}
    2a9c:	0f 90       	pop	r0
    2a9e:	0f 90       	pop	r0
    2aa0:	cf 91       	pop	r28
    2aa2:	df 91       	pop	r29
    2aa4:	08 95       	ret

00002aa6 <RTC_u8IsAM>:

u8 RTC_u8IsAM(void){
    2aa6:	df 93       	push	r29
    2aa8:	cf 93       	push	r28
    2aaa:	0f 92       	push	r0
    2aac:	cd b7       	in	r28, 0x3d	; 61
    2aae:	de b7       	in	r29, 0x3e	; 62
	TWI_vidSendStart();
    2ab0:	0e 94 f3 0a 	call	0x15e6	; 0x15e6 <TWI_vidSendStart>
		TWI_vidSendByte(RTC_MODE_WRITE);
    2ab4:	80 ed       	ldi	r24, 0xD0	; 208
    2ab6:	0e 94 03 0b 	call	0x1606	; 0x1606 <TWI_vidSendByte>
		TWI_vidSendByte(0x02);
    2aba:	82 e0       	ldi	r24, 0x02	; 2
    2abc:	0e 94 03 0b 	call	0x1606	; 0x1606 <TWI_vidSendByte>
		TWI_vidSendStop();
    2ac0:	0e 94 1a 0b 	call	0x1634	; 0x1634 <TWI_vidSendStop>

		TWI_vidSendStart();
    2ac4:	0e 94 f3 0a 	call	0x15e6	; 0x15e6 <TWI_vidSendStart>
		TWI_vidSendByte(RTC_MODE_READ);
    2ac8:	81 ed       	ldi	r24, 0xD1	; 209
    2aca:	0e 94 03 0b 	call	0x1606	; 0x1606 <TWI_vidSendByte>

		u8 flag=0;
    2ace:	19 82       	std	Y+1, r1	; 0x01
		flag =(TWI_u8ReceiveWithNoAck() & 0b00100000);
    2ad0:	0e 94 38 0b 	call	0x1670	; 0x1670 <TWI_u8ReceiveWithNoAck>
    2ad4:	80 72       	andi	r24, 0x20	; 32
    2ad6:	89 83       	std	Y+1, r24	; 0x01
		if(flag==1)
    2ad8:	89 81       	ldd	r24, Y+1	; 0x01
    2ada:	81 30       	cpi	r24, 0x01	; 1
    2adc:	11 f4       	brne	.+4      	; 0x2ae2 <RTC_u8IsAM+0x3c>
			flag =1;
    2ade:	81 e0       	ldi	r24, 0x01	; 1
    2ae0:	89 83       	std	Y+1, r24	; 0x01

		TWI_vidSendByte(0x00);
    2ae2:	80 e0       	ldi	r24, 0x00	; 0
    2ae4:	0e 94 03 0b 	call	0x1606	; 0x1606 <TWI_vidSendByte>
		TWI_vidSendStop();
    2ae8:	0e 94 1a 0b 	call	0x1634	; 0x1634 <TWI_vidSendStop>
		return flag;
    2aec:	89 81       	ldd	r24, Y+1	; 0x01
}
    2aee:	0f 90       	pop	r0
    2af0:	cf 91       	pop	r28
    2af2:	df 91       	pop	r29
    2af4:	08 95       	ret

00002af6 <UART_enu_Init>:
#include"UART_Private.h"
static void(*UART_pf_TX)(void) =NULL;
static void(*UART_pf_RX)(void) =NULL;
static u8 *UART_pu8_String = NULL;

ES_t UART_enu_Init(void){
    2af6:	df 93       	push	r29
    2af8:	cf 93       	push	r28
    2afa:	00 d0       	rcall	.+0      	; 0x2afc <UART_enu_Init+0x6>
    2afc:	00 d0       	rcall	.+0      	; 0x2afe <UART_enu_Init+0x8>
    2afe:	cd b7       	in	r28, 0x3d	; 61
    2b00:	de b7       	in	r29, 0x3e	; 62
    u16 Local_u16_UBRRValue = 0;
    2b02:	1b 82       	std	Y+3, r1	; 0x03
    2b04:	1a 82       	std	Y+2, r1	; 0x02
    u8 Local_u8_UCSRCValue = UCSRC_INITIAL_VALUE;
    2b06:	80 e8       	ldi	r24, 0x80	; 128
    2b08:	89 83       	std	Y+1, r24	; 0x01
/****************** UART Mode ****************/
    #if UART_MODE == ASYNCH_NORMAL_MODE
    CLR_BIT(UART_UCSRA_REG,U2X);
    2b0a:	ab e2       	ldi	r26, 0x2B	; 43
    2b0c:	b0 e0       	ldi	r27, 0x00	; 0
    2b0e:	eb e2       	ldi	r30, 0x2B	; 43
    2b10:	f0 e0       	ldi	r31, 0x00	; 0
    2b12:	80 81       	ld	r24, Z
    2b14:	8d 7f       	andi	r24, 0xFD	; 253
    2b16:	8c 93       	st	X, r24
    //CLR_BIT(UART_UCSRA_REG,MPCM);
    CLR_BIT(Local_u8_UCSRCValue,UMSEL);
    2b18:	89 81       	ldd	r24, Y+1	; 0x01
    2b1a:	8f 7b       	andi	r24, 0xBF	; 191
    2b1c:	89 83       	std	Y+1, r24	; 0x01
    Local_u16_UBRRValue = (F_CPU/(16UL*UART_BAUD_RATE))-1;
    2b1e:	87 e6       	ldi	r24, 0x67	; 103
    2b20:	90 e0       	ldi	r25, 0x00	; 0
    2b22:	9b 83       	std	Y+3, r25	; 0x03
    2b24:	8a 83       	std	Y+2, r24	; 0x02
    SET_BIT(Local_u8_UCSRCValue,UMSEL);
    Local_u16_boudRateValue = (F_CPU/(2UL*UART_BAUD_RATE))-1;
    #endif
/****************** UART Stop Bits ****************/
    #if UART_STOP_BITS == ONE_BIT
    CLR_BIT(Local_u8_UCSRCValue,USBS);
    2b26:	89 81       	ldd	r24, Y+1	; 0x01
    2b28:	87 7f       	andi	r24, 0xF7	; 247
    2b2a:	89 83       	std	Y+1, r24	; 0x01
    #elif UART_DATA_BITS == _7_BITS
    CLR_BIT(UART_UCSRB_REG,UCZ2);
    SET_BIT(Local_u8_UCSRCValue,UCZ1);
    CLR_BIT(Local_u8_UCSRCValue,UCZ0);
    #elif UART_DATA_BITS == _8_BITS
    CLR_BIT(UART_UCSRB_REG,UCZ2);
    2b2c:	aa e2       	ldi	r26, 0x2A	; 42
    2b2e:	b0 e0       	ldi	r27, 0x00	; 0
    2b30:	ea e2       	ldi	r30, 0x2A	; 42
    2b32:	f0 e0       	ldi	r31, 0x00	; 0
    2b34:	80 81       	ld	r24, Z
    2b36:	8b 7f       	andi	r24, 0xFB	; 251
    2b38:	8c 93       	st	X, r24
    SET_BIT(Local_u8_UCSRCValue,UCZ1);
    2b3a:	89 81       	ldd	r24, Y+1	; 0x01
    2b3c:	84 60       	ori	r24, 0x04	; 4
    2b3e:	89 83       	std	Y+1, r24	; 0x01
    SET_BIT(Local_u8_UCSRCValue,UCZ0);
    2b40:	89 81       	ldd	r24, Y+1	; 0x01
    2b42:	82 60       	ori	r24, 0x02	; 2
    2b44:	89 83       	std	Y+1, r24	; 0x01
    SET_BIT(Local_u8_UCSRCValue,UCZ1);
    SET_BIT(Local_u8_UCSRCValue,UCZ0);
    #endif
/******************UART Parity Bit****************/
    #if UART_PARITY_BIT == NONE
    CLR_BIT(Local_u8_UCSRCValue,UPM1);
    2b46:	89 81       	ldd	r24, Y+1	; 0x01
    2b48:	8f 7d       	andi	r24, 0xDF	; 223
    2b4a:	89 83       	std	Y+1, r24	; 0x01
    CLR_BIT(Local_u8_UCSRCValue,UPM0);
    2b4c:	89 81       	ldd	r24, Y+1	; 0x01
    2b4e:	8f 7e       	andi	r24, 0xEF	; 239
    2b50:	89 83       	std	Y+1, r24	; 0x01
    #elif UART_PARITY_BIT == EVEN_PARITY
    SET_BIT(Local_u8_UCSRCValue,UPM1);
    CLR_BIT(Local_u8_UCSRCValue,UPM0);
    #endif   
/************** Update UCSRC REG ********************/
    UART_UCSRC_REG = Local_u8_UCSRCValue;
    2b52:	e0 e4       	ldi	r30, 0x40	; 64
    2b54:	f0 e0       	ldi	r31, 0x00	; 0
    2b56:	89 81       	ldd	r24, Y+1	; 0x01
    2b58:	80 83       	st	Z, r24
/************** Baud Rate Value***********************/
    UART_UBRRL_REG = (u8)Local_u16_UBRRValue;
    2b5a:	e9 e2       	ldi	r30, 0x29	; 41
    2b5c:	f0 e0       	ldi	r31, 0x00	; 0
    2b5e:	8a 81       	ldd	r24, Y+2	; 0x02
    2b60:	80 83       	st	Z, r24
    UART_UBRRH_REG = (u8)(Local_u16_UBRRValue>>8);
    2b62:	e0 e4       	ldi	r30, 0x40	; 64
    2b64:	f0 e0       	ldi	r31, 0x00	; 0
    2b66:	8a 81       	ldd	r24, Y+2	; 0x02
    2b68:	9b 81       	ldd	r25, Y+3	; 0x03
    2b6a:	89 2f       	mov	r24, r25
    2b6c:	99 27       	eor	r25, r25
    2b6e:	80 83       	st	Z, r24
/************** Enable (RX-TX) ************************/
    SET_BIT(UART_UCSRB_REG,RXEN);
    2b70:	aa e2       	ldi	r26, 0x2A	; 42
    2b72:	b0 e0       	ldi	r27, 0x00	; 0
    2b74:	ea e2       	ldi	r30, 0x2A	; 42
    2b76:	f0 e0       	ldi	r31, 0x00	; 0
    2b78:	80 81       	ld	r24, Z
    2b7a:	80 61       	ori	r24, 0x10	; 16
    2b7c:	8c 93       	st	X, r24
    SET_BIT(UART_UCSRB_REG,TXEN);
    2b7e:	aa e2       	ldi	r26, 0x2A	; 42
    2b80:	b0 e0       	ldi	r27, 0x00	; 0
    2b82:	ea e2       	ldi	r30, 0x2A	; 42
    2b84:	f0 e0       	ldi	r31, 0x00	; 0
    2b86:	80 81       	ld	r24, Z
    2b88:	88 60       	ori	r24, 0x08	; 8
    2b8a:	8c 93       	st	X, r24
}
    2b8c:	0f 90       	pop	r0
    2b8e:	0f 90       	pop	r0
    2b90:	0f 90       	pop	r0
    2b92:	0f 90       	pop	r0
    2b94:	cf 91       	pop	r28
    2b96:	df 91       	pop	r29
    2b98:	08 95       	ret

00002b9a <UART_enu_sendChar>:
ES_t UART_enu_sendChar(u8 Copy_u8_Char){
    2b9a:	df 93       	push	r29
    2b9c:	cf 93       	push	r28
    2b9e:	00 d0       	rcall	.+0      	; 0x2ba0 <UART_enu_sendChar+0x6>
    2ba0:	cd b7       	in	r28, 0x3d	; 61
    2ba2:	de b7       	in	r29, 0x3e	; 62
    2ba4:	89 83       	std	Y+1, r24	; 0x01
    /*Wait Transmit register is empty*/
    while(!GET_BIT(UART_UCSRA_REG,UDRE));
    2ba6:	eb e2       	ldi	r30, 0x2B	; 43
    2ba8:	f0 e0       	ldi	r31, 0x00	; 0
    2baa:	80 81       	ld	r24, Z
    2bac:	82 95       	swap	r24
    2bae:	86 95       	lsr	r24
    2bb0:	87 70       	andi	r24, 0x07	; 7
    2bb2:	88 2f       	mov	r24, r24
    2bb4:	90 e0       	ldi	r25, 0x00	; 0
    2bb6:	81 70       	andi	r24, 0x01	; 1
    2bb8:	90 70       	andi	r25, 0x00	; 0
    2bba:	00 97       	sbiw	r24, 0x00	; 0
    2bbc:	a1 f3       	breq	.-24     	; 0x2ba6 <UART_enu_sendChar+0xc>
    /*Send Byte Value*/
    UART_UDR_REG = Copy_u8_Char;
    2bbe:	ec e2       	ldi	r30, 0x2C	; 44
    2bc0:	f0 e0       	ldi	r31, 0x00	; 0
    2bc2:	89 81       	ldd	r24, Y+1	; 0x01
    2bc4:	80 83       	st	Z, r24
}
    2bc6:	0f 90       	pop	r0
    2bc8:	0f 90       	pop	r0
    2bca:	cf 91       	pop	r28
    2bcc:	df 91       	pop	r29
    2bce:	08 95       	ret

00002bd0 <UART_enu_recieveChar>:
ES_t UART_enu_recieveChar(u8 *Copy_pu8_recievedChar){
    2bd0:	df 93       	push	r29
    2bd2:	cf 93       	push	r28
    2bd4:	00 d0       	rcall	.+0      	; 0x2bd6 <UART_enu_recieveChar+0x6>
    2bd6:	0f 92       	push	r0
    2bd8:	cd b7       	in	r28, 0x3d	; 61
    2bda:	de b7       	in	r29, 0x3e	; 62
    2bdc:	9b 83       	std	Y+3, r25	; 0x03
    2bde:	8a 83       	std	Y+2, r24	; 0x02
    u8 Local_u8_errorState = STATE_OK;
    2be0:	81 e0       	ldi	r24, 0x01	; 1
    2be2:	89 83       	std	Y+1, r24	; 0x01
    if(Copy_pu8_recievedChar!= NULL){
    2be4:	8a 81       	ldd	r24, Y+2	; 0x02
    2be6:	9b 81       	ldd	r25, Y+3	; 0x03
    2be8:	00 97       	sbiw	r24, 0x00	; 0
    2bea:	61 f0       	breq	.+24     	; 0x2c04 <UART_enu_recieveChar+0x34>
        /*Wait The Data Is Recieved */
        while(!GET_BIT(UART_UCSRA_REG,RXC));
    2bec:	eb e2       	ldi	r30, 0x2B	; 43
    2bee:	f0 e0       	ldi	r31, 0x00	; 0
    2bf0:	80 81       	ld	r24, Z
    2bf2:	88 23       	and	r24, r24
    2bf4:	dc f7       	brge	.-10     	; 0x2bec <UART_enu_recieveChar+0x1c>
        *Copy_pu8_recievedChar = UART_UDR_REG;
    2bf6:	ec e2       	ldi	r30, 0x2C	; 44
    2bf8:	f0 e0       	ldi	r31, 0x00	; 0
    2bfa:	80 81       	ld	r24, Z
    2bfc:	ea 81       	ldd	r30, Y+2	; 0x02
    2bfe:	fb 81       	ldd	r31, Y+3	; 0x03
    2c00:	80 83       	st	Z, r24
    2c02:	01 c0       	rjmp	.+2      	; 0x2c06 <UART_enu_recieveChar+0x36>
    }else{
        Local_u8_errorState = STATE_NOT_OK;
    2c04:	19 82       	std	Y+1, r1	; 0x01
    }
    return Local_u8_errorState;
    2c06:	89 81       	ldd	r24, Y+1	; 0x01
}
    2c08:	0f 90       	pop	r0
    2c0a:	0f 90       	pop	r0
    2c0c:	0f 90       	pop	r0
    2c0e:	cf 91       	pop	r28
    2c10:	df 91       	pop	r29
    2c12:	08 95       	ret

00002c14 <UART_enu_sendString>:
ES_t UART_enu_sendString(u8 *Copy_pu8_String){
    2c14:	df 93       	push	r29
    2c16:	cf 93       	push	r28
    2c18:	00 d0       	rcall	.+0      	; 0x2c1a <UART_enu_sendString+0x6>
    2c1a:	00 d0       	rcall	.+0      	; 0x2c1c <UART_enu_sendString+0x8>
    2c1c:	cd b7       	in	r28, 0x3d	; 61
    2c1e:	de b7       	in	r29, 0x3e	; 62
    2c20:	9c 83       	std	Y+4, r25	; 0x04
    2c22:	8b 83       	std	Y+3, r24	; 0x03
    u8 Local_u8_errorState = STATE_OK;
    2c24:	81 e0       	ldi	r24, 0x01	; 1
    2c26:	8a 83       	std	Y+2, r24	; 0x02
    if(Copy_pu8_String!=NULL){
    2c28:	8b 81       	ldd	r24, Y+3	; 0x03
    2c2a:	9c 81       	ldd	r25, Y+4	; 0x04
    2c2c:	00 97       	sbiw	r24, 0x00	; 0
    2c2e:	c9 f1       	breq	.+114    	; 0x2ca2 <UART_enu_sendString+0x8e>
    for(u8 Local_u8_Iterator =0;Copy_pu8_String[Local_u8_Iterator]!='\0';Local_u8_Iterator++){
    2c30:	19 82       	std	Y+1, r1	; 0x01
    2c32:	1b c0       	rjmp	.+54     	; 0x2c6a <UART_enu_sendString+0x56>
        /*Wait Transmit register is empty*/
        while(!(GET_BIT(UART_UCSRA_REG,UDRE)));
    2c34:	eb e2       	ldi	r30, 0x2B	; 43
    2c36:	f0 e0       	ldi	r31, 0x00	; 0
    2c38:	80 81       	ld	r24, Z
    2c3a:	82 95       	swap	r24
    2c3c:	86 95       	lsr	r24
    2c3e:	87 70       	andi	r24, 0x07	; 7
    2c40:	88 2f       	mov	r24, r24
    2c42:	90 e0       	ldi	r25, 0x00	; 0
    2c44:	81 70       	andi	r24, 0x01	; 1
    2c46:	90 70       	andi	r25, 0x00	; 0
    2c48:	00 97       	sbiw	r24, 0x00	; 0
    2c4a:	a1 f3       	breq	.-24     	; 0x2c34 <UART_enu_sendString+0x20>
        UART_UDR_REG = Copy_pu8_String[Local_u8_Iterator];
    2c4c:	ac e2       	ldi	r26, 0x2C	; 44
    2c4e:	b0 e0       	ldi	r27, 0x00	; 0
    2c50:	89 81       	ldd	r24, Y+1	; 0x01
    2c52:	28 2f       	mov	r18, r24
    2c54:	30 e0       	ldi	r19, 0x00	; 0
    2c56:	8b 81       	ldd	r24, Y+3	; 0x03
    2c58:	9c 81       	ldd	r25, Y+4	; 0x04
    2c5a:	fc 01       	movw	r30, r24
    2c5c:	e2 0f       	add	r30, r18
    2c5e:	f3 1f       	adc	r31, r19
    2c60:	80 81       	ld	r24, Z
    2c62:	8c 93       	st	X, r24
    return Local_u8_errorState;
}
ES_t UART_enu_sendString(u8 *Copy_pu8_String){
    u8 Local_u8_errorState = STATE_OK;
    if(Copy_pu8_String!=NULL){
    for(u8 Local_u8_Iterator =0;Copy_pu8_String[Local_u8_Iterator]!='\0';Local_u8_Iterator++){
    2c64:	89 81       	ldd	r24, Y+1	; 0x01
    2c66:	8f 5f       	subi	r24, 0xFF	; 255
    2c68:	89 83       	std	Y+1, r24	; 0x01
    2c6a:	89 81       	ldd	r24, Y+1	; 0x01
    2c6c:	28 2f       	mov	r18, r24
    2c6e:	30 e0       	ldi	r19, 0x00	; 0
    2c70:	8b 81       	ldd	r24, Y+3	; 0x03
    2c72:	9c 81       	ldd	r25, Y+4	; 0x04
    2c74:	fc 01       	movw	r30, r24
    2c76:	e2 0f       	add	r30, r18
    2c78:	f3 1f       	adc	r31, r19
    2c7a:	80 81       	ld	r24, Z
    2c7c:	88 23       	and	r24, r24
    2c7e:	d1 f6       	brne	.-76     	; 0x2c34 <UART_enu_sendString+0x20>
        /*Wait Transmit register is empty*/
        while(!(GET_BIT(UART_UCSRA_REG,UDRE)));
        UART_UDR_REG = Copy_pu8_String[Local_u8_Iterator];
    }
    while((!GET_BIT(UART_UCSRA_REG,UDRE)));
    2c80:	eb e2       	ldi	r30, 0x2B	; 43
    2c82:	f0 e0       	ldi	r31, 0x00	; 0
    2c84:	80 81       	ld	r24, Z
    2c86:	82 95       	swap	r24
    2c88:	86 95       	lsr	r24
    2c8a:	87 70       	andi	r24, 0x07	; 7
    2c8c:	88 2f       	mov	r24, r24
    2c8e:	90 e0       	ldi	r25, 0x00	; 0
    2c90:	81 70       	andi	r24, 0x01	; 1
    2c92:	90 70       	andi	r25, 0x00	; 0
    2c94:	00 97       	sbiw	r24, 0x00	; 0
    2c96:	a1 f3       	breq	.-24     	; 0x2c80 <UART_enu_sendString+0x6c>
    UART_UDR_REG = '\r';
    2c98:	ec e2       	ldi	r30, 0x2C	; 44
    2c9a:	f0 e0       	ldi	r31, 0x00	; 0
    2c9c:	8d e0       	ldi	r24, 0x0D	; 13
    2c9e:	80 83       	st	Z, r24
    2ca0:	01 c0       	rjmp	.+2      	; 0x2ca4 <UART_enu_sendString+0x90>
    }else{
        Local_u8_errorState = STATE_NOT_OK;
    2ca2:	1a 82       	std	Y+2, r1	; 0x02
    }
    return Local_u8_errorState;
    2ca4:	8a 81       	ldd	r24, Y+2	; 0x02
}
    2ca6:	0f 90       	pop	r0
    2ca8:	0f 90       	pop	r0
    2caa:	0f 90       	pop	r0
    2cac:	0f 90       	pop	r0
    2cae:	cf 91       	pop	r28
    2cb0:	df 91       	pop	r29
    2cb2:	08 95       	ret

00002cb4 <UART_enu_recieveString>:
ES_t UART_enu_recieveString(u8 *Copy_pu8_recievedString,u8 Copy_u8_messageSize){
    2cb4:	df 93       	push	r29
    2cb6:	cf 93       	push	r28
    2cb8:	00 d0       	rcall	.+0      	; 0x2cba <UART_enu_recieveString+0x6>
    2cba:	00 d0       	rcall	.+0      	; 0x2cbc <UART_enu_recieveString+0x8>
    2cbc:	0f 92       	push	r0
    2cbe:	cd b7       	in	r28, 0x3d	; 61
    2cc0:	de b7       	in	r29, 0x3e	; 62
    2cc2:	9c 83       	std	Y+4, r25	; 0x04
    2cc4:	8b 83       	std	Y+3, r24	; 0x03
    2cc6:	6d 83       	std	Y+5, r22	; 0x05
    u8 Local_u8_Iterator = 0;
    2cc8:	1a 82       	std	Y+2, r1	; 0x02
    u8 Local_u8_errorState = STATE_OK;
    2cca:	81 e0       	ldi	r24, 0x01	; 1
    2ccc:	89 83       	std	Y+1, r24	; 0x01
    if(Copy_pu8_recievedString!= NULL){
    2cce:	8b 81       	ldd	r24, Y+3	; 0x03
    2cd0:	9c 81       	ldd	r25, Y+4	; 0x04
    2cd2:	00 97       	sbiw	r24, 0x00	; 0
    2cd4:	19 f1       	breq	.+70     	; 0x2d1c <UART_enu_recieveString+0x68>
    2cd6:	14 c0       	rjmp	.+40     	; 0x2d00 <UART_enu_recieveString+0x4c>
        while(Local_u8_Iterator < Copy_u8_messageSize){
            while(!GET_BIT(UART_UCSRA_REG,RXC));
    2cd8:	eb e2       	ldi	r30, 0x2B	; 43
    2cda:	f0 e0       	ldi	r31, 0x00	; 0
    2cdc:	80 81       	ld	r24, Z
    2cde:	88 23       	and	r24, r24
    2ce0:	dc f7       	brge	.-10     	; 0x2cd8 <UART_enu_recieveString+0x24>
            Copy_pu8_recievedString[Local_u8_Iterator] = UART_UDR_REG;
    2ce2:	8a 81       	ldd	r24, Y+2	; 0x02
    2ce4:	28 2f       	mov	r18, r24
    2ce6:	30 e0       	ldi	r19, 0x00	; 0
    2ce8:	8b 81       	ldd	r24, Y+3	; 0x03
    2cea:	9c 81       	ldd	r25, Y+4	; 0x04
    2cec:	dc 01       	movw	r26, r24
    2cee:	a2 0f       	add	r26, r18
    2cf0:	b3 1f       	adc	r27, r19
    2cf2:	ec e2       	ldi	r30, 0x2C	; 44
    2cf4:	f0 e0       	ldi	r31, 0x00	; 0
    2cf6:	80 81       	ld	r24, Z
    2cf8:	8c 93       	st	X, r24
            Local_u8_Iterator++;
    2cfa:	8a 81       	ldd	r24, Y+2	; 0x02
    2cfc:	8f 5f       	subi	r24, 0xFF	; 255
    2cfe:	8a 83       	std	Y+2, r24	; 0x02
}
ES_t UART_enu_recieveString(u8 *Copy_pu8_recievedString,u8 Copy_u8_messageSize){
    u8 Local_u8_Iterator = 0;
    u8 Local_u8_errorState = STATE_OK;
    if(Copy_pu8_recievedString!= NULL){
        while(Local_u8_Iterator < Copy_u8_messageSize){
    2d00:	9a 81       	ldd	r25, Y+2	; 0x02
    2d02:	8d 81       	ldd	r24, Y+5	; 0x05
    2d04:	98 17       	cp	r25, r24
    2d06:	40 f3       	brcs	.-48     	; 0x2cd8 <UART_enu_recieveString+0x24>
            while(!GET_BIT(UART_UCSRA_REG,RXC));
            Copy_pu8_recievedString[Local_u8_Iterator] = UART_UDR_REG;
            Local_u8_Iterator++;
        }
        Copy_pu8_recievedString[Local_u8_Iterator] = '\0';
    2d08:	8a 81       	ldd	r24, Y+2	; 0x02
    2d0a:	28 2f       	mov	r18, r24
    2d0c:	30 e0       	ldi	r19, 0x00	; 0
    2d0e:	8b 81       	ldd	r24, Y+3	; 0x03
    2d10:	9c 81       	ldd	r25, Y+4	; 0x04
    2d12:	fc 01       	movw	r30, r24
    2d14:	e2 0f       	add	r30, r18
    2d16:	f3 1f       	adc	r31, r19
    2d18:	10 82       	st	Z, r1
    2d1a:	01 c0       	rjmp	.+2      	; 0x2d1e <UART_enu_recieveString+0x6a>
    }else{
        Local_u8_errorState = STATE_NOT_OK;
    2d1c:	19 82       	std	Y+1, r1	; 0x01
    }
    return Local_u8_errorState;
    2d1e:	89 81       	ldd	r24, Y+1	; 0x01
}
    2d20:	0f 90       	pop	r0
    2d22:	0f 90       	pop	r0
    2d24:	0f 90       	pop	r0
    2d26:	0f 90       	pop	r0
    2d28:	0f 90       	pop	r0
    2d2a:	cf 91       	pop	r28
    2d2c:	df 91       	pop	r29
    2d2e:	08 95       	ret

00002d30 <UART_enu_sendNUmber>:
ES_t UART_enu_sendNUmber(s32 Copy_s32_Num){
    2d30:	0f 93       	push	r16
    2d32:	1f 93       	push	r17
    2d34:	df 93       	push	r29
    2d36:	cf 93       	push	r28
    2d38:	cd b7       	in	r28, 0x3d	; 61
    2d3a:	de b7       	in	r29, 0x3e	; 62
    2d3c:	61 97       	sbiw	r28, 0x11	; 17
    2d3e:	0f b6       	in	r0, 0x3f	; 63
    2d40:	f8 94       	cli
    2d42:	de bf       	out	0x3e, r29	; 62
    2d44:	0f be       	out	0x3f, r0	; 63
    2d46:	cd bf       	out	0x3d, r28	; 61
    2d48:	6e 87       	std	Y+14, r22	; 0x0e
    2d4a:	7f 87       	std	Y+15, r23	; 0x0f
    2d4c:	88 8b       	std	Y+16, r24	; 0x10
    2d4e:	99 8b       	std	Y+17, r25	; 0x11
    u8 Local_u8_numArr[10], Local_u8_iterator1 = 0,flag = 0;
    2d50:	1b 82       	std	Y+3, r1	; 0x03
    2d52:	1a 82       	std	Y+2, r1	; 0x02
    s8 Local_u8_iterator2 = 0;
    2d54:	19 82       	std	Y+1, r1	; 0x01
    if(Copy_s32_Num < 0){
    2d56:	8e 85       	ldd	r24, Y+14	; 0x0e
    2d58:	9f 85       	ldd	r25, Y+15	; 0x0f
    2d5a:	a8 89       	ldd	r26, Y+16	; 0x10
    2d5c:	b9 89       	ldd	r27, Y+17	; 0x11
    2d5e:	bb 23       	and	r27, r27
    2d60:	8c f4       	brge	.+34     	; 0x2d84 <UART_enu_sendNUmber+0x54>
        Copy_s32_Num *= -1;
    2d62:	8e 85       	ldd	r24, Y+14	; 0x0e
    2d64:	9f 85       	ldd	r25, Y+15	; 0x0f
    2d66:	a8 89       	ldd	r26, Y+16	; 0x10
    2d68:	b9 89       	ldd	r27, Y+17	; 0x11
    2d6a:	b0 95       	com	r27
    2d6c:	a0 95       	com	r26
    2d6e:	90 95       	com	r25
    2d70:	81 95       	neg	r24
    2d72:	9f 4f       	sbci	r25, 0xFF	; 255
    2d74:	af 4f       	sbci	r26, 0xFF	; 255
    2d76:	bf 4f       	sbci	r27, 0xFF	; 255
    2d78:	8e 87       	std	Y+14, r24	; 0x0e
    2d7a:	9f 87       	std	Y+15, r25	; 0x0f
    2d7c:	a8 8b       	std	Y+16, r26	; 0x10
    2d7e:	b9 8b       	std	Y+17, r27	; 0x11
        flag =1;
    2d80:	81 e0       	ldi	r24, 0x01	; 1
    2d82:	8a 83       	std	Y+2, r24	; 0x02
    }
    if (Copy_s32_Num == 0){
    2d84:	8e 85       	ldd	r24, Y+14	; 0x0e
    2d86:	9f 85       	ldd	r25, Y+15	; 0x0f
    2d88:	a8 89       	ldd	r26, Y+16	; 0x10
    2d8a:	b9 89       	ldd	r27, Y+17	; 0x11
    2d8c:	00 97       	sbiw	r24, 0x00	; 0
    2d8e:	a1 05       	cpc	r26, r1
    2d90:	b1 05       	cpc	r27, r1
    2d92:	a9 f5       	brne	.+106    	; 0x2dfe <UART_enu_sendNUmber+0xce>
        UART_enu_sendChar('0');
    2d94:	80 e3       	ldi	r24, 0x30	; 48
    2d96:	0e 94 cd 15 	call	0x2b9a	; 0x2b9a <UART_enu_sendChar>
        UART_enu_sendChar('\r');
    2d9a:	8d e0       	ldi	r24, 0x0D	; 13
    2d9c:	0e 94 cd 15 	call	0x2b9a	; 0x2b9a <UART_enu_sendChar>
    2da0:	60 c0       	rjmp	.+192    	; 0x2e62 <UART_enu_sendNUmber+0x132>
    }
    else
    {
        while (Copy_s32_Num != 0)
        {
            Local_u8_numArr[Local_u8_iterator1] = (Copy_s32_Num % 10) + '0';
    2da2:	8b 81       	ldd	r24, Y+3	; 0x03
    2da4:	08 2f       	mov	r16, r24
    2da6:	10 e0       	ldi	r17, 0x00	; 0
    2da8:	8e 85       	ldd	r24, Y+14	; 0x0e
    2daa:	9f 85       	ldd	r25, Y+15	; 0x0f
    2dac:	a8 89       	ldd	r26, Y+16	; 0x10
    2dae:	b9 89       	ldd	r27, Y+17	; 0x11
    2db0:	2a e0       	ldi	r18, 0x0A	; 10
    2db2:	30 e0       	ldi	r19, 0x00	; 0
    2db4:	40 e0       	ldi	r20, 0x00	; 0
    2db6:	50 e0       	ldi	r21, 0x00	; 0
    2db8:	bc 01       	movw	r22, r24
    2dba:	cd 01       	movw	r24, r26
    2dbc:	0e 94 17 19 	call	0x322e	; 0x322e <__divmodsi4>
    2dc0:	dc 01       	movw	r26, r24
    2dc2:	cb 01       	movw	r24, r22
    2dc4:	28 2f       	mov	r18, r24
    2dc6:	20 5d       	subi	r18, 0xD0	; 208
    2dc8:	ce 01       	movw	r24, r28
    2dca:	04 96       	adiw	r24, 0x04	; 4
    2dcc:	fc 01       	movw	r30, r24
    2dce:	e0 0f       	add	r30, r16
    2dd0:	f1 1f       	adc	r31, r17
    2dd2:	20 83       	st	Z, r18
            Copy_s32_Num /= 10;
    2dd4:	8e 85       	ldd	r24, Y+14	; 0x0e
    2dd6:	9f 85       	ldd	r25, Y+15	; 0x0f
    2dd8:	a8 89       	ldd	r26, Y+16	; 0x10
    2dda:	b9 89       	ldd	r27, Y+17	; 0x11
    2ddc:	2a e0       	ldi	r18, 0x0A	; 10
    2dde:	30 e0       	ldi	r19, 0x00	; 0
    2de0:	40 e0       	ldi	r20, 0x00	; 0
    2de2:	50 e0       	ldi	r21, 0x00	; 0
    2de4:	bc 01       	movw	r22, r24
    2de6:	cd 01       	movw	r24, r26
    2de8:	0e 94 17 19 	call	0x322e	; 0x322e <__divmodsi4>
    2dec:	da 01       	movw	r26, r20
    2dee:	c9 01       	movw	r24, r18
    2df0:	8e 87       	std	Y+14, r24	; 0x0e
    2df2:	9f 87       	std	Y+15, r25	; 0x0f
    2df4:	a8 8b       	std	Y+16, r26	; 0x10
    2df6:	b9 8b       	std	Y+17, r27	; 0x11
            Local_u8_iterator1++;
    2df8:	8b 81       	ldd	r24, Y+3	; 0x03
    2dfa:	8f 5f       	subi	r24, 0xFF	; 255
    2dfc:	8b 83       	std	Y+3, r24	; 0x03
        UART_enu_sendChar('0');
        UART_enu_sendChar('\r');
    }
    else
    {
        while (Copy_s32_Num != 0)
    2dfe:	8e 85       	ldd	r24, Y+14	; 0x0e
    2e00:	9f 85       	ldd	r25, Y+15	; 0x0f
    2e02:	a8 89       	ldd	r26, Y+16	; 0x10
    2e04:	b9 89       	ldd	r27, Y+17	; 0x11
    2e06:	00 97       	sbiw	r24, 0x00	; 0
    2e08:	a1 05       	cpc	r26, r1
    2e0a:	b1 05       	cpc	r27, r1
    2e0c:	51 f6       	brne	.-108    	; 0x2da2 <UART_enu_sendNUmber+0x72>
        {
            Local_u8_numArr[Local_u8_iterator1] = (Copy_s32_Num % 10) + '0';
            Copy_s32_Num /= 10;
            Local_u8_iterator1++;
        }
        if(flag){
    2e0e:	8a 81       	ldd	r24, Y+2	; 0x02
    2e10:	88 23       	and	r24, r24
    2e12:	69 f0       	breq	.+26     	; 0x2e2e <UART_enu_sendNUmber+0xfe>
        Local_u8_numArr[Local_u8_iterator1] = '-';
    2e14:	8b 81       	ldd	r24, Y+3	; 0x03
    2e16:	28 2f       	mov	r18, r24
    2e18:	30 e0       	ldi	r19, 0x00	; 0
    2e1a:	ce 01       	movw	r24, r28
    2e1c:	04 96       	adiw	r24, 0x04	; 4
    2e1e:	fc 01       	movw	r30, r24
    2e20:	e2 0f       	add	r30, r18
    2e22:	f3 1f       	adc	r31, r19
    2e24:	8d e2       	ldi	r24, 0x2D	; 45
    2e26:	80 83       	st	Z, r24
        Local_u8_iterator1++;
    2e28:	8b 81       	ldd	r24, Y+3	; 0x03
    2e2a:	8f 5f       	subi	r24, 0xFF	; 255
    2e2c:	8b 83       	std	Y+3, r24	; 0x03
        }
        for (Local_u8_iterator2 = Local_u8_iterator1 - 1; Local_u8_iterator2 >= 0; Local_u8_iterator2--)
    2e2e:	8b 81       	ldd	r24, Y+3	; 0x03
    2e30:	81 50       	subi	r24, 0x01	; 1
    2e32:	89 83       	std	Y+1, r24	; 0x01
    2e34:	10 c0       	rjmp	.+32     	; 0x2e56 <UART_enu_sendNUmber+0x126>
        {
            UART_enu_sendChar(Local_u8_numArr[Local_u8_iterator2]);
    2e36:	89 81       	ldd	r24, Y+1	; 0x01
    2e38:	28 2f       	mov	r18, r24
    2e3a:	33 27       	eor	r19, r19
    2e3c:	27 fd       	sbrc	r18, 7
    2e3e:	30 95       	com	r19
    2e40:	ce 01       	movw	r24, r28
    2e42:	04 96       	adiw	r24, 0x04	; 4
    2e44:	fc 01       	movw	r30, r24
    2e46:	e2 0f       	add	r30, r18
    2e48:	f3 1f       	adc	r31, r19
    2e4a:	80 81       	ld	r24, Z
    2e4c:	0e 94 cd 15 	call	0x2b9a	; 0x2b9a <UART_enu_sendChar>
        }
        if(flag){
        Local_u8_numArr[Local_u8_iterator1] = '-';
        Local_u8_iterator1++;
        }
        for (Local_u8_iterator2 = Local_u8_iterator1 - 1; Local_u8_iterator2 >= 0; Local_u8_iterator2--)
    2e50:	89 81       	ldd	r24, Y+1	; 0x01
    2e52:	81 50       	subi	r24, 0x01	; 1
    2e54:	89 83       	std	Y+1, r24	; 0x01
    2e56:	89 81       	ldd	r24, Y+1	; 0x01
    2e58:	88 23       	and	r24, r24
    2e5a:	6c f7       	brge	.-38     	; 0x2e36 <UART_enu_sendNUmber+0x106>
        {
            UART_enu_sendChar(Local_u8_numArr[Local_u8_iterator2]);
        }
        UART_enu_sendChar('\r');
    2e5c:	8d e0       	ldi	r24, 0x0D	; 13
    2e5e:	0e 94 cd 15 	call	0x2b9a	; 0x2b9a <UART_enu_sendChar>
    }
    return STATE_OK;
    2e62:	81 e0       	ldi	r24, 0x01	; 1
}
    2e64:	61 96       	adiw	r28, 0x11	; 17
    2e66:	0f b6       	in	r0, 0x3f	; 63
    2e68:	f8 94       	cli
    2e6a:	de bf       	out	0x3e, r29	; 62
    2e6c:	0f be       	out	0x3f, r0	; 63
    2e6e:	cd bf       	out	0x3d, r28	; 61
    2e70:	cf 91       	pop	r28
    2e72:	df 91       	pop	r29
    2e74:	1f 91       	pop	r17
    2e76:	0f 91       	pop	r16
    2e78:	08 95       	ret

00002e7a <__vector_13>:
/*************ISR(Recieve)**********/
ISR(UART_RX){
    2e7a:	1f 92       	push	r1
    2e7c:	0f 92       	push	r0
    2e7e:	0f b6       	in	r0, 0x3f	; 63
    2e80:	0f 92       	push	r0
    2e82:	11 24       	eor	r1, r1
    2e84:	2f 93       	push	r18
    2e86:	3f 93       	push	r19
    2e88:	4f 93       	push	r20
    2e8a:	5f 93       	push	r21
    2e8c:	6f 93       	push	r22
    2e8e:	7f 93       	push	r23
    2e90:	8f 93       	push	r24
    2e92:	9f 93       	push	r25
    2e94:	af 93       	push	r26
    2e96:	bf 93       	push	r27
    2e98:	ef 93       	push	r30
    2e9a:	ff 93       	push	r31
    2e9c:	df 93       	push	r29
    2e9e:	cf 93       	push	r28
    2ea0:	cd b7       	in	r28, 0x3d	; 61
    2ea2:	de b7       	in	r29, 0x3e	; 62
    if(UART_pf_RX != NULL)
    2ea4:	80 91 ca 01 	lds	r24, 0x01CA
    2ea8:	90 91 cb 01 	lds	r25, 0x01CB
    2eac:	00 97       	sbiw	r24, 0x00	; 0
    2eae:	29 f0       	breq	.+10     	; 0x2eba <__vector_13+0x40>
        UART_pf_RX();
    2eb0:	e0 91 ca 01 	lds	r30, 0x01CA
    2eb4:	f0 91 cb 01 	lds	r31, 0x01CB
    2eb8:	09 95       	icall
}
    2eba:	cf 91       	pop	r28
    2ebc:	df 91       	pop	r29
    2ebe:	ff 91       	pop	r31
    2ec0:	ef 91       	pop	r30
    2ec2:	bf 91       	pop	r27
    2ec4:	af 91       	pop	r26
    2ec6:	9f 91       	pop	r25
    2ec8:	8f 91       	pop	r24
    2eca:	7f 91       	pop	r23
    2ecc:	6f 91       	pop	r22
    2ece:	5f 91       	pop	r21
    2ed0:	4f 91       	pop	r20
    2ed2:	3f 91       	pop	r19
    2ed4:	2f 91       	pop	r18
    2ed6:	0f 90       	pop	r0
    2ed8:	0f be       	out	0x3f, r0	; 63
    2eda:	0f 90       	pop	r0
    2edc:	1f 90       	pop	r1
    2ede:	18 95       	reti

00002ee0 <__vector_15>:
/*************ISR(Transmit)**********/
ISR(UART_TX){
    2ee0:	1f 92       	push	r1
    2ee2:	0f 92       	push	r0
    2ee4:	0f b6       	in	r0, 0x3f	; 63
    2ee6:	0f 92       	push	r0
    2ee8:	11 24       	eor	r1, r1
    2eea:	2f 93       	push	r18
    2eec:	3f 93       	push	r19
    2eee:	4f 93       	push	r20
    2ef0:	5f 93       	push	r21
    2ef2:	6f 93       	push	r22
    2ef4:	7f 93       	push	r23
    2ef6:	8f 93       	push	r24
    2ef8:	9f 93       	push	r25
    2efa:	af 93       	push	r26
    2efc:	bf 93       	push	r27
    2efe:	ef 93       	push	r30
    2f00:	ff 93       	push	r31
    2f02:	df 93       	push	r29
    2f04:	cf 93       	push	r28
    2f06:	cd b7       	in	r28, 0x3d	; 61
    2f08:	de b7       	in	r29, 0x3e	; 62
    if(UART_pf_TX != NULL)
    2f0a:	80 91 c8 01 	lds	r24, 0x01C8
    2f0e:	90 91 c9 01 	lds	r25, 0x01C9
    2f12:	00 97       	sbiw	r24, 0x00	; 0
    2f14:	29 f0       	breq	.+10     	; 0x2f20 <__vector_15+0x40>
        UART_pf_RX();
    2f16:	e0 91 ca 01 	lds	r30, 0x01CA
    2f1a:	f0 91 cb 01 	lds	r31, 0x01CB
    2f1e:	09 95       	icall

}
    2f20:	cf 91       	pop	r28
    2f22:	df 91       	pop	r29
    2f24:	ff 91       	pop	r31
    2f26:	ef 91       	pop	r30
    2f28:	bf 91       	pop	r27
    2f2a:	af 91       	pop	r26
    2f2c:	9f 91       	pop	r25
    2f2e:	8f 91       	pop	r24
    2f30:	7f 91       	pop	r23
    2f32:	6f 91       	pop	r22
    2f34:	5f 91       	pop	r21
    2f36:	4f 91       	pop	r20
    2f38:	3f 91       	pop	r19
    2f3a:	2f 91       	pop	r18
    2f3c:	0f 90       	pop	r0
    2f3e:	0f be       	out	0x3f, r0	; 63
    2f40:	0f 90       	pop	r0
    2f42:	1f 90       	pop	r1
    2f44:	18 95       	reti

00002f46 <main>:
/* Defines */
#undef F_CPU
#define F_CPU 16000000UL //setting CPU clock to 16MHz

/* main function */
int main(void) {
    2f46:	df 93       	push	r29
    2f48:	cf 93       	push	r28
    2f4a:	cd b7       	in	r28, 0x3d	; 61
    2f4c:	de b7       	in	r29, 0x3e	; 62
    2f4e:	c2 56       	subi	r28, 0x62	; 98
    2f50:	d0 40       	sbci	r29, 0x00	; 0
    2f52:	0f b6       	in	r0, 0x3f	; 63
    2f54:	f8 94       	cli
    2f56:	de bf       	out	0x3e, r29	; 62
    2f58:	0f be       	out	0x3f, r0	; 63
    2f5a:	cd bf       	out	0x3d, r28	; 61

	/* Initializations */
	DIO_voidInit();
    2f5c:	0e 94 50 06 	call	0xca0	; 0xca0 <DIO_voidInit>
	LCD_voidInit();
    2f60:	0e 94 66 0b 	call	0x16cc	; 0x16cc <LCD_voidInit>
	UART_enu_Init();
    2f64:	0e 94 7b 15 	call	0x2af6	; 0x2af6 <UART_enu_Init>
	RTC_vidInit();
    2f68:	0e 94 31 14 	call	0x2862	; 0x2862 <RTC_vidInit>

	LCD_voidGotoxy(0,5);
    2f6c:	80 e0       	ldi	r24, 0x00	; 0
    2f6e:	65 e0       	ldi	r22, 0x05	; 5
    2f70:	0e 94 c2 12 	call	0x2584	; 0x2584 <LCD_voidGotoxy>
	LCD_voidSendString("RTC Master");
    2f74:	84 e6       	ldi	r24, 0x64	; 100
    2f76:	90 e0       	ldi	r25, 0x00	; 0
    2f78:	0e 94 ed 11 	call	0x23da	; 0x23da <LCD_voidSendString>
	 *	rtc.u8Hours   = 5;
	 */


	/* My Special Characters */
	u8 Local_u8SpecialCharacterStand[] = { 0x0E, 0x0A, 0x0E, 0x15, 0x15, 0x04, 0x0A, 0x0A};
    2f7c:	ce 01       	movw	r24, r28
    2f7e:	0a 96       	adiw	r24, 0x0a	; 10
    2f80:	66 96       	adiw	r28, 0x16	; 22
    2f82:	9f af       	std	Y+63, r25	; 0x3f
    2f84:	8e af       	std	Y+62, r24	; 0x3e
    2f86:	66 97       	sbiw	r28, 0x16	; 22
    2f88:	e0 ec       	ldi	r30, 0xC0	; 192
    2f8a:	f1 e0       	ldi	r31, 0x01	; 1
    2f8c:	68 96       	adiw	r28, 0x18	; 24
    2f8e:	ff af       	std	Y+63, r31	; 0x3f
    2f90:	ee af       	std	Y+62, r30	; 0x3e
    2f92:	68 97       	sbiw	r28, 0x18	; 24
    2f94:	f8 e0       	ldi	r31, 0x08	; 8
    2f96:	69 96       	adiw	r28, 0x19	; 25
    2f98:	ff af       	std	Y+63, r31	; 0x3f
    2f9a:	69 97       	sbiw	r28, 0x19	; 25
    2f9c:	68 96       	adiw	r28, 0x18	; 24
    2f9e:	ee ad       	ldd	r30, Y+62	; 0x3e
    2fa0:	ff ad       	ldd	r31, Y+63	; 0x3f
    2fa2:	68 97       	sbiw	r28, 0x18	; 24
    2fa4:	00 80       	ld	r0, Z
    2fa6:	68 96       	adiw	r28, 0x18	; 24
    2fa8:	8e ad       	ldd	r24, Y+62	; 0x3e
    2faa:	9f ad       	ldd	r25, Y+63	; 0x3f
    2fac:	68 97       	sbiw	r28, 0x18	; 24
    2fae:	01 96       	adiw	r24, 0x01	; 1
    2fb0:	68 96       	adiw	r28, 0x18	; 24
    2fb2:	9f af       	std	Y+63, r25	; 0x3f
    2fb4:	8e af       	std	Y+62, r24	; 0x3e
    2fb6:	68 97       	sbiw	r28, 0x18	; 24
    2fb8:	66 96       	adiw	r28, 0x16	; 22
    2fba:	ee ad       	ldd	r30, Y+62	; 0x3e
    2fbc:	ff ad       	ldd	r31, Y+63	; 0x3f
    2fbe:	66 97       	sbiw	r28, 0x16	; 22
    2fc0:	00 82       	st	Z, r0
    2fc2:	66 96       	adiw	r28, 0x16	; 22
    2fc4:	8e ad       	ldd	r24, Y+62	; 0x3e
    2fc6:	9f ad       	ldd	r25, Y+63	; 0x3f
    2fc8:	66 97       	sbiw	r28, 0x16	; 22
    2fca:	01 96       	adiw	r24, 0x01	; 1
    2fcc:	66 96       	adiw	r28, 0x16	; 22
    2fce:	9f af       	std	Y+63, r25	; 0x3f
    2fd0:	8e af       	std	Y+62, r24	; 0x3e
    2fd2:	66 97       	sbiw	r28, 0x16	; 22
    2fd4:	69 96       	adiw	r28, 0x19	; 25
    2fd6:	9f ad       	ldd	r25, Y+63	; 0x3f
    2fd8:	69 97       	sbiw	r28, 0x19	; 25
    2fda:	91 50       	subi	r25, 0x01	; 1
    2fdc:	69 96       	adiw	r28, 0x19	; 25
    2fde:	9f af       	std	Y+63, r25	; 0x3f
    2fe0:	69 97       	sbiw	r28, 0x19	; 25
    2fe2:	69 96       	adiw	r28, 0x19	; 25
    2fe4:	ef ad       	ldd	r30, Y+63	; 0x3f
    2fe6:	69 97       	sbiw	r28, 0x19	; 25
    2fe8:	ee 23       	and	r30, r30
    2fea:	c1 f6       	brne	.-80     	; 0x2f9c <main+0x56>
	u8 Local_u8SpecialCharacterLeft[]  = { 0x00, 0x00, 0x0E, 0x1B, 0x0E, 0x04, 0x1E, 0x02};
    2fec:	ce 01       	movw	r24, r28
    2fee:	42 96       	adiw	r24, 0x12	; 18
    2ff0:	6b 96       	adiw	r28, 0x1b	; 27
    2ff2:	9f af       	std	Y+63, r25	; 0x3f
    2ff4:	8e af       	std	Y+62, r24	; 0x3e
    2ff6:	6b 97       	sbiw	r28, 0x1b	; 27
    2ff8:	e8 eb       	ldi	r30, 0xB8	; 184
    2ffa:	f1 e0       	ldi	r31, 0x01	; 1
    2ffc:	6d 96       	adiw	r28, 0x1d	; 29
    2ffe:	ff af       	std	Y+63, r31	; 0x3f
    3000:	ee af       	std	Y+62, r30	; 0x3e
    3002:	6d 97       	sbiw	r28, 0x1d	; 29
    3004:	f8 e0       	ldi	r31, 0x08	; 8
    3006:	6e 96       	adiw	r28, 0x1e	; 30
    3008:	ff af       	std	Y+63, r31	; 0x3f
    300a:	6e 97       	sbiw	r28, 0x1e	; 30
    300c:	6d 96       	adiw	r28, 0x1d	; 29
    300e:	ee ad       	ldd	r30, Y+62	; 0x3e
    3010:	ff ad       	ldd	r31, Y+63	; 0x3f
    3012:	6d 97       	sbiw	r28, 0x1d	; 29
    3014:	00 80       	ld	r0, Z
    3016:	6d 96       	adiw	r28, 0x1d	; 29
    3018:	8e ad       	ldd	r24, Y+62	; 0x3e
    301a:	9f ad       	ldd	r25, Y+63	; 0x3f
    301c:	6d 97       	sbiw	r28, 0x1d	; 29
    301e:	01 96       	adiw	r24, 0x01	; 1
    3020:	6d 96       	adiw	r28, 0x1d	; 29
    3022:	9f af       	std	Y+63, r25	; 0x3f
    3024:	8e af       	std	Y+62, r24	; 0x3e
    3026:	6d 97       	sbiw	r28, 0x1d	; 29
    3028:	6b 96       	adiw	r28, 0x1b	; 27
    302a:	ee ad       	ldd	r30, Y+62	; 0x3e
    302c:	ff ad       	ldd	r31, Y+63	; 0x3f
    302e:	6b 97       	sbiw	r28, 0x1b	; 27
    3030:	00 82       	st	Z, r0
    3032:	6b 96       	adiw	r28, 0x1b	; 27
    3034:	8e ad       	ldd	r24, Y+62	; 0x3e
    3036:	9f ad       	ldd	r25, Y+63	; 0x3f
    3038:	6b 97       	sbiw	r28, 0x1b	; 27
    303a:	01 96       	adiw	r24, 0x01	; 1
    303c:	6b 96       	adiw	r28, 0x1b	; 27
    303e:	9f af       	std	Y+63, r25	; 0x3f
    3040:	8e af       	std	Y+62, r24	; 0x3e
    3042:	6b 97       	sbiw	r28, 0x1b	; 27
    3044:	6e 96       	adiw	r28, 0x1e	; 30
    3046:	9f ad       	ldd	r25, Y+63	; 0x3f
    3048:	6e 97       	sbiw	r28, 0x1e	; 30
    304a:	91 50       	subi	r25, 0x01	; 1
    304c:	6e 96       	adiw	r28, 0x1e	; 30
    304e:	9f af       	std	Y+63, r25	; 0x3f
    3050:	6e 97       	sbiw	r28, 0x1e	; 30
    3052:	6e 96       	adiw	r28, 0x1e	; 30
    3054:	ef ad       	ldd	r30, Y+63	; 0x3f
    3056:	6e 97       	sbiw	r28, 0x1e	; 30
    3058:	ee 23       	and	r30, r30
    305a:	c1 f6       	brne	.-80     	; 0x300c <main+0xc6>
	u8 Local_u8SpecialCharacterRight[] = { 0x00, 0x00, 0x0E, 0x1B, 0x0E, 0x04, 0x0F, 0x08};
    305c:	ce 01       	movw	r24, r28
    305e:	4a 96       	adiw	r24, 0x1a	; 26
    3060:	a0 96       	adiw	r28, 0x20	; 32
    3062:	9f af       	std	Y+63, r25	; 0x3f
    3064:	8e af       	std	Y+62, r24	; 0x3e
    3066:	a0 97       	sbiw	r28, 0x20	; 32
    3068:	e0 eb       	ldi	r30, 0xB0	; 176
    306a:	f1 e0       	ldi	r31, 0x01	; 1
    306c:	a2 96       	adiw	r28, 0x22	; 34
    306e:	ff af       	std	Y+63, r31	; 0x3f
    3070:	ee af       	std	Y+62, r30	; 0x3e
    3072:	a2 97       	sbiw	r28, 0x22	; 34
    3074:	f8 e0       	ldi	r31, 0x08	; 8
    3076:	a3 96       	adiw	r28, 0x23	; 35
    3078:	ff af       	std	Y+63, r31	; 0x3f
    307a:	a3 97       	sbiw	r28, 0x23	; 35
    307c:	a2 96       	adiw	r28, 0x22	; 34
    307e:	ee ad       	ldd	r30, Y+62	; 0x3e
    3080:	ff ad       	ldd	r31, Y+63	; 0x3f
    3082:	a2 97       	sbiw	r28, 0x22	; 34
    3084:	00 80       	ld	r0, Z
    3086:	a2 96       	adiw	r28, 0x22	; 34
    3088:	8e ad       	ldd	r24, Y+62	; 0x3e
    308a:	9f ad       	ldd	r25, Y+63	; 0x3f
    308c:	a2 97       	sbiw	r28, 0x22	; 34
    308e:	01 96       	adiw	r24, 0x01	; 1
    3090:	a2 96       	adiw	r28, 0x22	; 34
    3092:	9f af       	std	Y+63, r25	; 0x3f
    3094:	8e af       	std	Y+62, r24	; 0x3e
    3096:	a2 97       	sbiw	r28, 0x22	; 34
    3098:	a0 96       	adiw	r28, 0x20	; 32
    309a:	ee ad       	ldd	r30, Y+62	; 0x3e
    309c:	ff ad       	ldd	r31, Y+63	; 0x3f
    309e:	a0 97       	sbiw	r28, 0x20	; 32
    30a0:	00 82       	st	Z, r0
    30a2:	a0 96       	adiw	r28, 0x20	; 32
    30a4:	8e ad       	ldd	r24, Y+62	; 0x3e
    30a6:	9f ad       	ldd	r25, Y+63	; 0x3f
    30a8:	a0 97       	sbiw	r28, 0x20	; 32
    30aa:	01 96       	adiw	r24, 0x01	; 1
    30ac:	a0 96       	adiw	r28, 0x20	; 32
    30ae:	9f af       	std	Y+63, r25	; 0x3f
    30b0:	8e af       	std	Y+62, r24	; 0x3e
    30b2:	a0 97       	sbiw	r28, 0x20	; 32
    30b4:	a3 96       	adiw	r28, 0x23	; 35
    30b6:	9f ad       	ldd	r25, Y+63	; 0x3f
    30b8:	a3 97       	sbiw	r28, 0x23	; 35
    30ba:	91 50       	subi	r25, 0x01	; 1
    30bc:	a3 96       	adiw	r28, 0x23	; 35
    30be:	9f af       	std	Y+63, r25	; 0x3f
    30c0:	a3 97       	sbiw	r28, 0x23	; 35
    30c2:	a3 96       	adiw	r28, 0x23	; 35
    30c4:	ef ad       	ldd	r30, Y+63	; 0x3f
    30c6:	a3 97       	sbiw	r28, 0x23	; 35
    30c8:	ee 23       	and	r30, r30
    30ca:	c1 f6       	brne	.-80     	; 0x307c <main+0x136>

	while (1) {

		/* Getting time */
		RTC_vidGetTime(&rtc);
    30cc:	ce 01       	movw	r24, r28
    30ce:	02 96       	adiw	r24, 0x02	; 2
    30d0:	0e 94 7f 14 	call	0x28fe	; 0x28fe <RTC_vidGetTime>

		/* Check if its AM or PM */
		u8 Local_u8IsAMFlag = RTC_u8IsAM();
    30d4:	0e 94 53 15 	call	0x2aa6	; 0x2aa6 <RTC_u8IsAM>
    30d8:	89 83       	std	Y+1, r24	; 0x01

		/* Collection data in one buffer to print it with AM_PM flag*/
		u8 Local_u8Buffer[50];
		sprintf(Local_u8Buffer, "%02d:%02d:%02d:%02d", rtc.u8Hours,rtc.u8Minutes, rtc.u8Seconds, Local_u8IsAMFlag);
    30da:	8c 81       	ldd	r24, Y+4	; 0x04
    30dc:	48 2f       	mov	r20, r24
    30de:	50 e0       	ldi	r21, 0x00	; 0
    30e0:	8b 81       	ldd	r24, Y+3	; 0x03
    30e2:	68 2f       	mov	r22, r24
    30e4:	70 e0       	ldi	r23, 0x00	; 0
    30e6:	8a 81       	ldd	r24, Y+2	; 0x02
    30e8:	a8 2f       	mov	r26, r24
    30ea:	b0 e0       	ldi	r27, 0x00	; 0
    30ec:	89 81       	ldd	r24, Y+1	; 0x01
    30ee:	28 2f       	mov	r18, r24
    30f0:	30 e0       	ldi	r19, 0x00	; 0
    30f2:	8d b7       	in	r24, 0x3d	; 61
    30f4:	9e b7       	in	r25, 0x3e	; 62
    30f6:	0c 97       	sbiw	r24, 0x0c	; 12
    30f8:	0f b6       	in	r0, 0x3f	; 63
    30fa:	f8 94       	cli
    30fc:	9e bf       	out	0x3e, r25	; 62
    30fe:	0f be       	out	0x3f, r0	; 63
    3100:	8d bf       	out	0x3d, r24	; 61
    3102:	ed b7       	in	r30, 0x3d	; 61
    3104:	fe b7       	in	r31, 0x3e	; 62
    3106:	31 96       	adiw	r30, 0x01	; 1
    3108:	ce 01       	movw	r24, r28
    310a:	82 96       	adiw	r24, 0x22	; 34
    310c:	91 83       	std	Z+1, r25	; 0x01
    310e:	80 83       	st	Z, r24
    3110:	8f e6       	ldi	r24, 0x6F	; 111
    3112:	90 e0       	ldi	r25, 0x00	; 0
    3114:	93 83       	std	Z+3, r25	; 0x03
    3116:	82 83       	std	Z+2, r24	; 0x02
    3118:	55 83       	std	Z+5, r21	; 0x05
    311a:	44 83       	std	Z+4, r20	; 0x04
    311c:	77 83       	std	Z+7, r23	; 0x07
    311e:	66 83       	std	Z+6, r22	; 0x06
    3120:	b1 87       	std	Z+9, r27	; 0x09
    3122:	a0 87       	std	Z+8, r26	; 0x08
    3124:	33 87       	std	Z+11, r19	; 0x0b
    3126:	22 87       	std	Z+10, r18	; 0x0a
    3128:	0e 94 8b 19 	call	0x3316	; 0x3316 <sprintf>
    312c:	ed b7       	in	r30, 0x3d	; 61
    312e:	fe b7       	in	r31, 0x3e	; 62
    3130:	3c 96       	adiw	r30, 0x0c	; 12
    3132:	0f b6       	in	r0, 0x3f	; 63
    3134:	f8 94       	cli
    3136:	fe bf       	out	0x3e, r31	; 62
    3138:	0f be       	out	0x3f, r0	; 63
    313a:	ed bf       	out	0x3d, r30	; 61

		/* Sending the buffer using UART */
		UART_enu_sendString(Local_u8Buffer);
    313c:	ce 01       	movw	r24, r28
    313e:	82 96       	adiw	r24, 0x22	; 34
    3140:	0e 94 0a 16 	call	0x2c14	; 0x2c14 <UART_enu_sendString>

		/* Collection data in one buffer to print it without AM_PM flag*/
		sprintf(Local_u8Buffer, "%02d:%02d:%02d", rtc.u8Hours,rtc.u8Minutes, rtc.u8Seconds);
    3144:	8c 81       	ldd	r24, Y+4	; 0x04
    3146:	68 2f       	mov	r22, r24
    3148:	70 e0       	ldi	r23, 0x00	; 0
    314a:	8b 81       	ldd	r24, Y+3	; 0x03
    314c:	28 2f       	mov	r18, r24
    314e:	30 e0       	ldi	r19, 0x00	; 0
    3150:	8a 81       	ldd	r24, Y+2	; 0x02
    3152:	48 2f       	mov	r20, r24
    3154:	50 e0       	ldi	r21, 0x00	; 0
    3156:	8d b7       	in	r24, 0x3d	; 61
    3158:	9e b7       	in	r25, 0x3e	; 62
    315a:	0a 97       	sbiw	r24, 0x0a	; 10
    315c:	0f b6       	in	r0, 0x3f	; 63
    315e:	f8 94       	cli
    3160:	9e bf       	out	0x3e, r25	; 62
    3162:	0f be       	out	0x3f, r0	; 63
    3164:	8d bf       	out	0x3d, r24	; 61
    3166:	ed b7       	in	r30, 0x3d	; 61
    3168:	fe b7       	in	r31, 0x3e	; 62
    316a:	31 96       	adiw	r30, 0x01	; 1
    316c:	ce 01       	movw	r24, r28
    316e:	82 96       	adiw	r24, 0x22	; 34
    3170:	91 83       	std	Z+1, r25	; 0x01
    3172:	80 83       	st	Z, r24
    3174:	83 e8       	ldi	r24, 0x83	; 131
    3176:	90 e0       	ldi	r25, 0x00	; 0
    3178:	93 83       	std	Z+3, r25	; 0x03
    317a:	82 83       	std	Z+2, r24	; 0x02
    317c:	75 83       	std	Z+5, r23	; 0x05
    317e:	64 83       	std	Z+4, r22	; 0x04
    3180:	37 83       	std	Z+7, r19	; 0x07
    3182:	26 83       	std	Z+6, r18	; 0x06
    3184:	51 87       	std	Z+9, r21	; 0x09
    3186:	40 87       	std	Z+8, r20	; 0x08
    3188:	0e 94 8b 19 	call	0x3316	; 0x3316 <sprintf>
    318c:	ed b7       	in	r30, 0x3d	; 61
    318e:	fe b7       	in	r31, 0x3e	; 62
    3190:	3a 96       	adiw	r30, 0x0a	; 10
    3192:	0f b6       	in	r0, 0x3f	; 63
    3194:	f8 94       	cli
    3196:	fe bf       	out	0x3e, r31	; 62
    3198:	0f be       	out	0x3f, r0	; 63
    319a:	ed bf       	out	0x3d, r30	; 61

		/* Printing buffer on LCD */
		LCD_voidGotoxy(1,6);
    319c:	81 e0       	ldi	r24, 0x01	; 1
    319e:	66 e0       	ldi	r22, 0x06	; 6
    31a0:	0e 94 c2 12 	call	0x2584	; 0x2584 <LCD_voidGotoxy>
		LCD_voidSendString(Local_u8Buffer);
    31a4:	ce 01       	movw	r24, r28
    31a6:	82 96       	adiw	r24, 0x22	; 34
    31a8:	0e 94 ed 11 	call	0x23da	; 0x23da <LCD_voidSendString>

		/* Print AM or PM */
		LCD_voidGotoxy(2, 9);
    31ac:	82 e0       	ldi	r24, 0x02	; 2
    31ae:	69 e0       	ldi	r22, 0x09	; 9
    31b0:	0e 94 c2 12 	call	0x2584	; 0x2584 <LCD_voidGotoxy>
		if (!Local_u8IsAMFlag)
    31b4:	89 81       	ldd	r24, Y+1	; 0x01
    31b6:	88 23       	and	r24, r24
    31b8:	29 f4       	brne	.+10     	; 0x31c4 <main+0x27e>
			LCD_voidSendString("PM");
    31ba:	82 e9       	ldi	r24, 0x92	; 146
    31bc:	90 e0       	ldi	r25, 0x00	; 0
    31be:	0e 94 ed 11 	call	0x23da	; 0x23da <LCD_voidSendString>
    31c2:	04 c0       	rjmp	.+8      	; 0x31cc <main+0x286>
		else
			LCD_voidSendString("AM");
    31c4:	85 e9       	ldi	r24, 0x95	; 149
    31c6:	90 e0       	ldi	r25, 0x00	; 0
    31c8:	0e 94 ed 11 	call	0x23da	; 0x23da <LCD_voidSendString>

		/* Special Character */
		if (rtc.u8Seconds % 2 == 0) {
    31cc:	8a 81       	ldd	r24, Y+2	; 0x02
    31ce:	88 2f       	mov	r24, r24
    31d0:	90 e0       	ldi	r25, 0x00	; 0
    31d2:	81 70       	andi	r24, 0x01	; 1
    31d4:	90 70       	andi	r25, 0x00	; 0
    31d6:	00 97       	sbiw	r24, 0x00	; 0
    31d8:	79 f4       	brne	.+30     	; 0x31f8 <main+0x2b2>
			LCD_voidWriteSpecialCharacter(Local_u8SpecialCharacterLeft, 1, 3, 11);
    31da:	ce 01       	movw	r24, r28
    31dc:	42 96       	adiw	r24, 0x12	; 18
    31de:	61 e0       	ldi	r22, 0x01	; 1
    31e0:	43 e0       	ldi	r20, 0x03	; 3
    31e2:	2b e0       	ldi	r18, 0x0B	; 11
    31e4:	0e 94 b7 13 	call	0x276e	; 0x276e <LCD_voidWriteSpecialCharacter>
			LCD_voidWriteSpecialCharacter(Local_u8SpecialCharacterStand, 2, 3, 8);
    31e8:	ce 01       	movw	r24, r28
    31ea:	0a 96       	adiw	r24, 0x0a	; 10
    31ec:	62 e0       	ldi	r22, 0x02	; 2
    31ee:	43 e0       	ldi	r20, 0x03	; 3
    31f0:	28 e0       	ldi	r18, 0x08	; 8
    31f2:	0e 94 b7 13 	call	0x276e	; 0x276e <LCD_voidWriteSpecialCharacter>
    31f6:	6a cf       	rjmp	.-300    	; 0x30cc <main+0x186>
		} else {
			LCD_voidWriteSpecialCharacter(Local_u8SpecialCharacterRight, 3, 3, 8);
    31f8:	ce 01       	movw	r24, r28
    31fa:	4a 96       	adiw	r24, 0x1a	; 26
    31fc:	63 e0       	ldi	r22, 0x03	; 3
    31fe:	43 e0       	ldi	r20, 0x03	; 3
    3200:	28 e0       	ldi	r18, 0x08	; 8
    3202:	0e 94 b7 13 	call	0x276e	; 0x276e <LCD_voidWriteSpecialCharacter>
			LCD_voidWriteSpecialCharacter(Local_u8SpecialCharacterStand, 4, 3, 11);
    3206:	ce 01       	movw	r24, r28
    3208:	0a 96       	adiw	r24, 0x0a	; 10
    320a:	64 e0       	ldi	r22, 0x04	; 4
    320c:	43 e0       	ldi	r20, 0x03	; 3
    320e:	2b e0       	ldi	r18, 0x0B	; 11
    3210:	0e 94 b7 13 	call	0x276e	; 0x276e <LCD_voidWriteSpecialCharacter>
    3214:	5b cf       	rjmp	.-330    	; 0x30cc <main+0x186>

00003216 <__udivmodqi4>:
    3216:	99 1b       	sub	r25, r25
    3218:	79 e0       	ldi	r23, 0x09	; 9
    321a:	04 c0       	rjmp	.+8      	; 0x3224 <__udivmodqi4_ep>

0000321c <__udivmodqi4_loop>:
    321c:	99 1f       	adc	r25, r25
    321e:	96 17       	cp	r25, r22
    3220:	08 f0       	brcs	.+2      	; 0x3224 <__udivmodqi4_ep>
    3222:	96 1b       	sub	r25, r22

00003224 <__udivmodqi4_ep>:
    3224:	88 1f       	adc	r24, r24
    3226:	7a 95       	dec	r23
    3228:	c9 f7       	brne	.-14     	; 0x321c <__udivmodqi4_loop>
    322a:	80 95       	com	r24
    322c:	08 95       	ret

0000322e <__divmodsi4>:
    322e:	97 fb       	bst	r25, 7
    3230:	09 2e       	mov	r0, r25
    3232:	05 26       	eor	r0, r21
    3234:	0e d0       	rcall	.+28     	; 0x3252 <__divmodsi4_neg1>
    3236:	57 fd       	sbrc	r21, 7
    3238:	04 d0       	rcall	.+8      	; 0x3242 <__divmodsi4_neg2>
    323a:	14 d0       	rcall	.+40     	; 0x3264 <__udivmodsi4>
    323c:	0a d0       	rcall	.+20     	; 0x3252 <__divmodsi4_neg1>
    323e:	00 1c       	adc	r0, r0
    3240:	38 f4       	brcc	.+14     	; 0x3250 <__divmodsi4_exit>

00003242 <__divmodsi4_neg2>:
    3242:	50 95       	com	r21
    3244:	40 95       	com	r20
    3246:	30 95       	com	r19
    3248:	21 95       	neg	r18
    324a:	3f 4f       	sbci	r19, 0xFF	; 255
    324c:	4f 4f       	sbci	r20, 0xFF	; 255
    324e:	5f 4f       	sbci	r21, 0xFF	; 255

00003250 <__divmodsi4_exit>:
    3250:	08 95       	ret

00003252 <__divmodsi4_neg1>:
    3252:	f6 f7       	brtc	.-4      	; 0x3250 <__divmodsi4_exit>
    3254:	90 95       	com	r25
    3256:	80 95       	com	r24
    3258:	70 95       	com	r23
    325a:	61 95       	neg	r22
    325c:	7f 4f       	sbci	r23, 0xFF	; 255
    325e:	8f 4f       	sbci	r24, 0xFF	; 255
    3260:	9f 4f       	sbci	r25, 0xFF	; 255
    3262:	08 95       	ret

00003264 <__udivmodsi4>:
    3264:	a1 e2       	ldi	r26, 0x21	; 33
    3266:	1a 2e       	mov	r1, r26
    3268:	aa 1b       	sub	r26, r26
    326a:	bb 1b       	sub	r27, r27
    326c:	fd 01       	movw	r30, r26
    326e:	0d c0       	rjmp	.+26     	; 0x328a <__udivmodsi4_ep>

00003270 <__udivmodsi4_loop>:
    3270:	aa 1f       	adc	r26, r26
    3272:	bb 1f       	adc	r27, r27
    3274:	ee 1f       	adc	r30, r30
    3276:	ff 1f       	adc	r31, r31
    3278:	a2 17       	cp	r26, r18
    327a:	b3 07       	cpc	r27, r19
    327c:	e4 07       	cpc	r30, r20
    327e:	f5 07       	cpc	r31, r21
    3280:	20 f0       	brcs	.+8      	; 0x328a <__udivmodsi4_ep>
    3282:	a2 1b       	sub	r26, r18
    3284:	b3 0b       	sbc	r27, r19
    3286:	e4 0b       	sbc	r30, r20
    3288:	f5 0b       	sbc	r31, r21

0000328a <__udivmodsi4_ep>:
    328a:	66 1f       	adc	r22, r22
    328c:	77 1f       	adc	r23, r23
    328e:	88 1f       	adc	r24, r24
    3290:	99 1f       	adc	r25, r25
    3292:	1a 94       	dec	r1
    3294:	69 f7       	brne	.-38     	; 0x3270 <__udivmodsi4_loop>
    3296:	60 95       	com	r22
    3298:	70 95       	com	r23
    329a:	80 95       	com	r24
    329c:	90 95       	com	r25
    329e:	9b 01       	movw	r18, r22
    32a0:	ac 01       	movw	r20, r24
    32a2:	bd 01       	movw	r22, r26
    32a4:	cf 01       	movw	r24, r30
    32a6:	08 95       	ret

000032a8 <__prologue_saves__>:
    32a8:	2f 92       	push	r2
    32aa:	3f 92       	push	r3
    32ac:	4f 92       	push	r4
    32ae:	5f 92       	push	r5
    32b0:	6f 92       	push	r6
    32b2:	7f 92       	push	r7
    32b4:	8f 92       	push	r8
    32b6:	9f 92       	push	r9
    32b8:	af 92       	push	r10
    32ba:	bf 92       	push	r11
    32bc:	cf 92       	push	r12
    32be:	df 92       	push	r13
    32c0:	ef 92       	push	r14
    32c2:	ff 92       	push	r15
    32c4:	0f 93       	push	r16
    32c6:	1f 93       	push	r17
    32c8:	cf 93       	push	r28
    32ca:	df 93       	push	r29
    32cc:	cd b7       	in	r28, 0x3d	; 61
    32ce:	de b7       	in	r29, 0x3e	; 62
    32d0:	ca 1b       	sub	r28, r26
    32d2:	db 0b       	sbc	r29, r27
    32d4:	0f b6       	in	r0, 0x3f	; 63
    32d6:	f8 94       	cli
    32d8:	de bf       	out	0x3e, r29	; 62
    32da:	0f be       	out	0x3f, r0	; 63
    32dc:	cd bf       	out	0x3d, r28	; 61
    32de:	09 94       	ijmp

000032e0 <__epilogue_restores__>:
    32e0:	2a 88       	ldd	r2, Y+18	; 0x12
    32e2:	39 88       	ldd	r3, Y+17	; 0x11
    32e4:	48 88       	ldd	r4, Y+16	; 0x10
    32e6:	5f 84       	ldd	r5, Y+15	; 0x0f
    32e8:	6e 84       	ldd	r6, Y+14	; 0x0e
    32ea:	7d 84       	ldd	r7, Y+13	; 0x0d
    32ec:	8c 84       	ldd	r8, Y+12	; 0x0c
    32ee:	9b 84       	ldd	r9, Y+11	; 0x0b
    32f0:	aa 84       	ldd	r10, Y+10	; 0x0a
    32f2:	b9 84       	ldd	r11, Y+9	; 0x09
    32f4:	c8 84       	ldd	r12, Y+8	; 0x08
    32f6:	df 80       	ldd	r13, Y+7	; 0x07
    32f8:	ee 80       	ldd	r14, Y+6	; 0x06
    32fa:	fd 80       	ldd	r15, Y+5	; 0x05
    32fc:	0c 81       	ldd	r16, Y+4	; 0x04
    32fe:	1b 81       	ldd	r17, Y+3	; 0x03
    3300:	aa 81       	ldd	r26, Y+2	; 0x02
    3302:	b9 81       	ldd	r27, Y+1	; 0x01
    3304:	ce 0f       	add	r28, r30
    3306:	d1 1d       	adc	r29, r1
    3308:	0f b6       	in	r0, 0x3f	; 63
    330a:	f8 94       	cli
    330c:	de bf       	out	0x3e, r29	; 62
    330e:	0f be       	out	0x3f, r0	; 63
    3310:	cd bf       	out	0x3d, r28	; 61
    3312:	ed 01       	movw	r28, r26
    3314:	08 95       	ret

00003316 <sprintf>:
    3316:	ae e0       	ldi	r26, 0x0E	; 14
    3318:	b0 e0       	ldi	r27, 0x00	; 0
    331a:	e1 e9       	ldi	r30, 0x91	; 145
    331c:	f9 e1       	ldi	r31, 0x19	; 25
    331e:	0c 94 62 19 	jmp	0x32c4	; 0x32c4 <__prologue_saves__+0x1c>
    3322:	0d 89       	ldd	r16, Y+21	; 0x15
    3324:	1e 89       	ldd	r17, Y+22	; 0x16
    3326:	86 e0       	ldi	r24, 0x06	; 6
    3328:	8c 83       	std	Y+4, r24	; 0x04
    332a:	1a 83       	std	Y+2, r17	; 0x02
    332c:	09 83       	std	Y+1, r16	; 0x01
    332e:	8f ef       	ldi	r24, 0xFF	; 255
    3330:	9f e7       	ldi	r25, 0x7F	; 127
    3332:	9e 83       	std	Y+6, r25	; 0x06
    3334:	8d 83       	std	Y+5, r24	; 0x05
    3336:	9e 01       	movw	r18, r28
    3338:	27 5e       	subi	r18, 0xE7	; 231
    333a:	3f 4f       	sbci	r19, 0xFF	; 255
    333c:	ce 01       	movw	r24, r28
    333e:	01 96       	adiw	r24, 0x01	; 1
    3340:	6f 89       	ldd	r22, Y+23	; 0x17
    3342:	78 8d       	ldd	r23, Y+24	; 0x18
    3344:	a9 01       	movw	r20, r18
    3346:	0e 94 af 19 	call	0x335e	; 0x335e <vfprintf>
    334a:	2f 81       	ldd	r18, Y+7	; 0x07
    334c:	38 85       	ldd	r19, Y+8	; 0x08
    334e:	02 0f       	add	r16, r18
    3350:	13 1f       	adc	r17, r19
    3352:	f8 01       	movw	r30, r16
    3354:	10 82       	st	Z, r1
    3356:	2e 96       	adiw	r28, 0x0e	; 14
    3358:	e4 e0       	ldi	r30, 0x04	; 4
    335a:	0c 94 7e 19 	jmp	0x32fc	; 0x32fc <__epilogue_restores__+0x1c>

0000335e <vfprintf>:
    335e:	ab e0       	ldi	r26, 0x0B	; 11
    3360:	b0 e0       	ldi	r27, 0x00	; 0
    3362:	e5 eb       	ldi	r30, 0xB5	; 181
    3364:	f9 e1       	ldi	r31, 0x19	; 25
    3366:	0c 94 54 19 	jmp	0x32a8	; 0x32a8 <__prologue_saves__>
    336a:	3c 01       	movw	r6, r24
    336c:	2b 01       	movw	r4, r22
    336e:	5a 01       	movw	r10, r20
    3370:	fc 01       	movw	r30, r24
    3372:	17 82       	std	Z+7, r1	; 0x07
    3374:	16 82       	std	Z+6, r1	; 0x06
    3376:	83 81       	ldd	r24, Z+3	; 0x03
    3378:	81 fd       	sbrc	r24, 1
    337a:	03 c0       	rjmp	.+6      	; 0x3382 <vfprintf+0x24>
    337c:	6f ef       	ldi	r22, 0xFF	; 255
    337e:	7f ef       	ldi	r23, 0xFF	; 255
    3380:	c6 c1       	rjmp	.+908    	; 0x370e <vfprintf+0x3b0>
    3382:	9a e0       	ldi	r25, 0x0A	; 10
    3384:	89 2e       	mov	r8, r25
    3386:	1e 01       	movw	r2, r28
    3388:	08 94       	sec
    338a:	21 1c       	adc	r2, r1
    338c:	31 1c       	adc	r3, r1
    338e:	f3 01       	movw	r30, r6
    3390:	23 81       	ldd	r18, Z+3	; 0x03
    3392:	f2 01       	movw	r30, r4
    3394:	23 fd       	sbrc	r18, 3
    3396:	85 91       	lpm	r24, Z+
    3398:	23 ff       	sbrs	r18, 3
    339a:	81 91       	ld	r24, Z+
    339c:	2f 01       	movw	r4, r30
    339e:	88 23       	and	r24, r24
    33a0:	09 f4       	brne	.+2      	; 0x33a4 <vfprintf+0x46>
    33a2:	b2 c1       	rjmp	.+868    	; 0x3708 <vfprintf+0x3aa>
    33a4:	85 32       	cpi	r24, 0x25	; 37
    33a6:	39 f4       	brne	.+14     	; 0x33b6 <vfprintf+0x58>
    33a8:	23 fd       	sbrc	r18, 3
    33aa:	85 91       	lpm	r24, Z+
    33ac:	23 ff       	sbrs	r18, 3
    33ae:	81 91       	ld	r24, Z+
    33b0:	2f 01       	movw	r4, r30
    33b2:	85 32       	cpi	r24, 0x25	; 37
    33b4:	29 f4       	brne	.+10     	; 0x33c0 <vfprintf+0x62>
    33b6:	90 e0       	ldi	r25, 0x00	; 0
    33b8:	b3 01       	movw	r22, r6
    33ba:	0e 94 a2 1b 	call	0x3744	; 0x3744 <fputc>
    33be:	e7 cf       	rjmp	.-50     	; 0x338e <vfprintf+0x30>
    33c0:	98 2f       	mov	r25, r24
    33c2:	ff 24       	eor	r15, r15
    33c4:	ee 24       	eor	r14, r14
    33c6:	99 24       	eor	r9, r9
    33c8:	ff e1       	ldi	r31, 0x1F	; 31
    33ca:	ff 15       	cp	r31, r15
    33cc:	d0 f0       	brcs	.+52     	; 0x3402 <vfprintf+0xa4>
    33ce:	9b 32       	cpi	r25, 0x2B	; 43
    33d0:	69 f0       	breq	.+26     	; 0x33ec <vfprintf+0x8e>
    33d2:	9c 32       	cpi	r25, 0x2C	; 44
    33d4:	28 f4       	brcc	.+10     	; 0x33e0 <vfprintf+0x82>
    33d6:	90 32       	cpi	r25, 0x20	; 32
    33d8:	59 f0       	breq	.+22     	; 0x33f0 <vfprintf+0x92>
    33da:	93 32       	cpi	r25, 0x23	; 35
    33dc:	91 f4       	brne	.+36     	; 0x3402 <vfprintf+0xa4>
    33de:	0e c0       	rjmp	.+28     	; 0x33fc <vfprintf+0x9e>
    33e0:	9d 32       	cpi	r25, 0x2D	; 45
    33e2:	49 f0       	breq	.+18     	; 0x33f6 <vfprintf+0x98>
    33e4:	90 33       	cpi	r25, 0x30	; 48
    33e6:	69 f4       	brne	.+26     	; 0x3402 <vfprintf+0xa4>
    33e8:	41 e0       	ldi	r20, 0x01	; 1
    33ea:	24 c0       	rjmp	.+72     	; 0x3434 <vfprintf+0xd6>
    33ec:	52 e0       	ldi	r21, 0x02	; 2
    33ee:	f5 2a       	or	r15, r21
    33f0:	84 e0       	ldi	r24, 0x04	; 4
    33f2:	f8 2a       	or	r15, r24
    33f4:	28 c0       	rjmp	.+80     	; 0x3446 <vfprintf+0xe8>
    33f6:	98 e0       	ldi	r25, 0x08	; 8
    33f8:	f9 2a       	or	r15, r25
    33fa:	25 c0       	rjmp	.+74     	; 0x3446 <vfprintf+0xe8>
    33fc:	e0 e1       	ldi	r30, 0x10	; 16
    33fe:	fe 2a       	or	r15, r30
    3400:	22 c0       	rjmp	.+68     	; 0x3446 <vfprintf+0xe8>
    3402:	f7 fc       	sbrc	r15, 7
    3404:	29 c0       	rjmp	.+82     	; 0x3458 <vfprintf+0xfa>
    3406:	89 2f       	mov	r24, r25
    3408:	80 53       	subi	r24, 0x30	; 48
    340a:	8a 30       	cpi	r24, 0x0A	; 10
    340c:	70 f4       	brcc	.+28     	; 0x342a <vfprintf+0xcc>
    340e:	f6 fe       	sbrs	r15, 6
    3410:	05 c0       	rjmp	.+10     	; 0x341c <vfprintf+0xbe>
    3412:	98 9c       	mul	r9, r8
    3414:	90 2c       	mov	r9, r0
    3416:	11 24       	eor	r1, r1
    3418:	98 0e       	add	r9, r24
    341a:	15 c0       	rjmp	.+42     	; 0x3446 <vfprintf+0xe8>
    341c:	e8 9c       	mul	r14, r8
    341e:	e0 2c       	mov	r14, r0
    3420:	11 24       	eor	r1, r1
    3422:	e8 0e       	add	r14, r24
    3424:	f0 e2       	ldi	r31, 0x20	; 32
    3426:	ff 2a       	or	r15, r31
    3428:	0e c0       	rjmp	.+28     	; 0x3446 <vfprintf+0xe8>
    342a:	9e 32       	cpi	r25, 0x2E	; 46
    342c:	29 f4       	brne	.+10     	; 0x3438 <vfprintf+0xda>
    342e:	f6 fc       	sbrc	r15, 6
    3430:	6b c1       	rjmp	.+726    	; 0x3708 <vfprintf+0x3aa>
    3432:	40 e4       	ldi	r20, 0x40	; 64
    3434:	f4 2a       	or	r15, r20
    3436:	07 c0       	rjmp	.+14     	; 0x3446 <vfprintf+0xe8>
    3438:	9c 36       	cpi	r25, 0x6C	; 108
    343a:	19 f4       	brne	.+6      	; 0x3442 <vfprintf+0xe4>
    343c:	50 e8       	ldi	r21, 0x80	; 128
    343e:	f5 2a       	or	r15, r21
    3440:	02 c0       	rjmp	.+4      	; 0x3446 <vfprintf+0xe8>
    3442:	98 36       	cpi	r25, 0x68	; 104
    3444:	49 f4       	brne	.+18     	; 0x3458 <vfprintf+0xfa>
    3446:	f2 01       	movw	r30, r4
    3448:	23 fd       	sbrc	r18, 3
    344a:	95 91       	lpm	r25, Z+
    344c:	23 ff       	sbrs	r18, 3
    344e:	91 91       	ld	r25, Z+
    3450:	2f 01       	movw	r4, r30
    3452:	99 23       	and	r25, r25
    3454:	09 f0       	breq	.+2      	; 0x3458 <vfprintf+0xfa>
    3456:	b8 cf       	rjmp	.-144    	; 0x33c8 <vfprintf+0x6a>
    3458:	89 2f       	mov	r24, r25
    345a:	85 54       	subi	r24, 0x45	; 69
    345c:	83 30       	cpi	r24, 0x03	; 3
    345e:	18 f0       	brcs	.+6      	; 0x3466 <vfprintf+0x108>
    3460:	80 52       	subi	r24, 0x20	; 32
    3462:	83 30       	cpi	r24, 0x03	; 3
    3464:	38 f4       	brcc	.+14     	; 0x3474 <vfprintf+0x116>
    3466:	44 e0       	ldi	r20, 0x04	; 4
    3468:	50 e0       	ldi	r21, 0x00	; 0
    346a:	a4 0e       	add	r10, r20
    346c:	b5 1e       	adc	r11, r21
    346e:	5f e3       	ldi	r21, 0x3F	; 63
    3470:	59 83       	std	Y+1, r21	; 0x01
    3472:	0f c0       	rjmp	.+30     	; 0x3492 <vfprintf+0x134>
    3474:	93 36       	cpi	r25, 0x63	; 99
    3476:	31 f0       	breq	.+12     	; 0x3484 <vfprintf+0x126>
    3478:	93 37       	cpi	r25, 0x73	; 115
    347a:	79 f0       	breq	.+30     	; 0x349a <vfprintf+0x13c>
    347c:	93 35       	cpi	r25, 0x53	; 83
    347e:	09 f0       	breq	.+2      	; 0x3482 <vfprintf+0x124>
    3480:	56 c0       	rjmp	.+172    	; 0x352e <vfprintf+0x1d0>
    3482:	20 c0       	rjmp	.+64     	; 0x34c4 <vfprintf+0x166>
    3484:	f5 01       	movw	r30, r10
    3486:	80 81       	ld	r24, Z
    3488:	89 83       	std	Y+1, r24	; 0x01
    348a:	42 e0       	ldi	r20, 0x02	; 2
    348c:	50 e0       	ldi	r21, 0x00	; 0
    348e:	a4 0e       	add	r10, r20
    3490:	b5 1e       	adc	r11, r21
    3492:	61 01       	movw	r12, r2
    3494:	01 e0       	ldi	r16, 0x01	; 1
    3496:	10 e0       	ldi	r17, 0x00	; 0
    3498:	12 c0       	rjmp	.+36     	; 0x34be <vfprintf+0x160>
    349a:	f5 01       	movw	r30, r10
    349c:	c0 80       	ld	r12, Z
    349e:	d1 80       	ldd	r13, Z+1	; 0x01
    34a0:	f6 fc       	sbrc	r15, 6
    34a2:	03 c0       	rjmp	.+6      	; 0x34aa <vfprintf+0x14c>
    34a4:	6f ef       	ldi	r22, 0xFF	; 255
    34a6:	7f ef       	ldi	r23, 0xFF	; 255
    34a8:	02 c0       	rjmp	.+4      	; 0x34ae <vfprintf+0x150>
    34aa:	69 2d       	mov	r22, r9
    34ac:	70 e0       	ldi	r23, 0x00	; 0
    34ae:	42 e0       	ldi	r20, 0x02	; 2
    34b0:	50 e0       	ldi	r21, 0x00	; 0
    34b2:	a4 0e       	add	r10, r20
    34b4:	b5 1e       	adc	r11, r21
    34b6:	c6 01       	movw	r24, r12
    34b8:	0e 94 97 1b 	call	0x372e	; 0x372e <strnlen>
    34bc:	8c 01       	movw	r16, r24
    34be:	5f e7       	ldi	r21, 0x7F	; 127
    34c0:	f5 22       	and	r15, r21
    34c2:	14 c0       	rjmp	.+40     	; 0x34ec <vfprintf+0x18e>
    34c4:	f5 01       	movw	r30, r10
    34c6:	c0 80       	ld	r12, Z
    34c8:	d1 80       	ldd	r13, Z+1	; 0x01
    34ca:	f6 fc       	sbrc	r15, 6
    34cc:	03 c0       	rjmp	.+6      	; 0x34d4 <vfprintf+0x176>
    34ce:	6f ef       	ldi	r22, 0xFF	; 255
    34d0:	7f ef       	ldi	r23, 0xFF	; 255
    34d2:	02 c0       	rjmp	.+4      	; 0x34d8 <vfprintf+0x17a>
    34d4:	69 2d       	mov	r22, r9
    34d6:	70 e0       	ldi	r23, 0x00	; 0
    34d8:	42 e0       	ldi	r20, 0x02	; 2
    34da:	50 e0       	ldi	r21, 0x00	; 0
    34dc:	a4 0e       	add	r10, r20
    34de:	b5 1e       	adc	r11, r21
    34e0:	c6 01       	movw	r24, r12
    34e2:	0e 94 8c 1b 	call	0x3718	; 0x3718 <strnlen_P>
    34e6:	8c 01       	movw	r16, r24
    34e8:	50 e8       	ldi	r21, 0x80	; 128
    34ea:	f5 2a       	or	r15, r21
    34ec:	f3 fe       	sbrs	r15, 3
    34ee:	07 c0       	rjmp	.+14     	; 0x34fe <vfprintf+0x1a0>
    34f0:	1a c0       	rjmp	.+52     	; 0x3526 <vfprintf+0x1c8>
    34f2:	80 e2       	ldi	r24, 0x20	; 32
    34f4:	90 e0       	ldi	r25, 0x00	; 0
    34f6:	b3 01       	movw	r22, r6
    34f8:	0e 94 a2 1b 	call	0x3744	; 0x3744 <fputc>
    34fc:	ea 94       	dec	r14
    34fe:	8e 2d       	mov	r24, r14
    3500:	90 e0       	ldi	r25, 0x00	; 0
    3502:	08 17       	cp	r16, r24
    3504:	19 07       	cpc	r17, r25
    3506:	a8 f3       	brcs	.-22     	; 0x34f2 <vfprintf+0x194>
    3508:	0e c0       	rjmp	.+28     	; 0x3526 <vfprintf+0x1c8>
    350a:	f6 01       	movw	r30, r12
    350c:	f7 fc       	sbrc	r15, 7
    350e:	85 91       	lpm	r24, Z+
    3510:	f7 fe       	sbrs	r15, 7
    3512:	81 91       	ld	r24, Z+
    3514:	6f 01       	movw	r12, r30
    3516:	90 e0       	ldi	r25, 0x00	; 0
    3518:	b3 01       	movw	r22, r6
    351a:	0e 94 a2 1b 	call	0x3744	; 0x3744 <fputc>
    351e:	e1 10       	cpse	r14, r1
    3520:	ea 94       	dec	r14
    3522:	01 50       	subi	r16, 0x01	; 1
    3524:	10 40       	sbci	r17, 0x00	; 0
    3526:	01 15       	cp	r16, r1
    3528:	11 05       	cpc	r17, r1
    352a:	79 f7       	brne	.-34     	; 0x350a <vfprintf+0x1ac>
    352c:	ea c0       	rjmp	.+468    	; 0x3702 <vfprintf+0x3a4>
    352e:	94 36       	cpi	r25, 0x64	; 100
    3530:	11 f0       	breq	.+4      	; 0x3536 <vfprintf+0x1d8>
    3532:	99 36       	cpi	r25, 0x69	; 105
    3534:	69 f5       	brne	.+90     	; 0x3590 <vfprintf+0x232>
    3536:	f7 fe       	sbrs	r15, 7
    3538:	08 c0       	rjmp	.+16     	; 0x354a <vfprintf+0x1ec>
    353a:	f5 01       	movw	r30, r10
    353c:	20 81       	ld	r18, Z
    353e:	31 81       	ldd	r19, Z+1	; 0x01
    3540:	42 81       	ldd	r20, Z+2	; 0x02
    3542:	53 81       	ldd	r21, Z+3	; 0x03
    3544:	84 e0       	ldi	r24, 0x04	; 4
    3546:	90 e0       	ldi	r25, 0x00	; 0
    3548:	0a c0       	rjmp	.+20     	; 0x355e <vfprintf+0x200>
    354a:	f5 01       	movw	r30, r10
    354c:	80 81       	ld	r24, Z
    354e:	91 81       	ldd	r25, Z+1	; 0x01
    3550:	9c 01       	movw	r18, r24
    3552:	44 27       	eor	r20, r20
    3554:	37 fd       	sbrc	r19, 7
    3556:	40 95       	com	r20
    3558:	54 2f       	mov	r21, r20
    355a:	82 e0       	ldi	r24, 0x02	; 2
    355c:	90 e0       	ldi	r25, 0x00	; 0
    355e:	a8 0e       	add	r10, r24
    3560:	b9 1e       	adc	r11, r25
    3562:	9f e6       	ldi	r25, 0x6F	; 111
    3564:	f9 22       	and	r15, r25
    3566:	57 ff       	sbrs	r21, 7
    3568:	09 c0       	rjmp	.+18     	; 0x357c <vfprintf+0x21e>
    356a:	50 95       	com	r21
    356c:	40 95       	com	r20
    356e:	30 95       	com	r19
    3570:	21 95       	neg	r18
    3572:	3f 4f       	sbci	r19, 0xFF	; 255
    3574:	4f 4f       	sbci	r20, 0xFF	; 255
    3576:	5f 4f       	sbci	r21, 0xFF	; 255
    3578:	e0 e8       	ldi	r30, 0x80	; 128
    357a:	fe 2a       	or	r15, r30
    357c:	ca 01       	movw	r24, r20
    357e:	b9 01       	movw	r22, r18
    3580:	a1 01       	movw	r20, r2
    3582:	2a e0       	ldi	r18, 0x0A	; 10
    3584:	30 e0       	ldi	r19, 0x00	; 0
    3586:	0e 94 ce 1b 	call	0x379c	; 0x379c <__ultoa_invert>
    358a:	d8 2e       	mov	r13, r24
    358c:	d2 18       	sub	r13, r2
    358e:	40 c0       	rjmp	.+128    	; 0x3610 <vfprintf+0x2b2>
    3590:	95 37       	cpi	r25, 0x75	; 117
    3592:	29 f4       	brne	.+10     	; 0x359e <vfprintf+0x240>
    3594:	1f 2d       	mov	r17, r15
    3596:	1f 7e       	andi	r17, 0xEF	; 239
    3598:	2a e0       	ldi	r18, 0x0A	; 10
    359a:	30 e0       	ldi	r19, 0x00	; 0
    359c:	1d c0       	rjmp	.+58     	; 0x35d8 <vfprintf+0x27a>
    359e:	1f 2d       	mov	r17, r15
    35a0:	19 7f       	andi	r17, 0xF9	; 249
    35a2:	9f 36       	cpi	r25, 0x6F	; 111
    35a4:	61 f0       	breq	.+24     	; 0x35be <vfprintf+0x260>
    35a6:	90 37       	cpi	r25, 0x70	; 112
    35a8:	20 f4       	brcc	.+8      	; 0x35b2 <vfprintf+0x254>
    35aa:	98 35       	cpi	r25, 0x58	; 88
    35ac:	09 f0       	breq	.+2      	; 0x35b0 <vfprintf+0x252>
    35ae:	ac c0       	rjmp	.+344    	; 0x3708 <vfprintf+0x3aa>
    35b0:	0f c0       	rjmp	.+30     	; 0x35d0 <vfprintf+0x272>
    35b2:	90 37       	cpi	r25, 0x70	; 112
    35b4:	39 f0       	breq	.+14     	; 0x35c4 <vfprintf+0x266>
    35b6:	98 37       	cpi	r25, 0x78	; 120
    35b8:	09 f0       	breq	.+2      	; 0x35bc <vfprintf+0x25e>
    35ba:	a6 c0       	rjmp	.+332    	; 0x3708 <vfprintf+0x3aa>
    35bc:	04 c0       	rjmp	.+8      	; 0x35c6 <vfprintf+0x268>
    35be:	28 e0       	ldi	r18, 0x08	; 8
    35c0:	30 e0       	ldi	r19, 0x00	; 0
    35c2:	0a c0       	rjmp	.+20     	; 0x35d8 <vfprintf+0x27a>
    35c4:	10 61       	ori	r17, 0x10	; 16
    35c6:	14 fd       	sbrc	r17, 4
    35c8:	14 60       	ori	r17, 0x04	; 4
    35ca:	20 e1       	ldi	r18, 0x10	; 16
    35cc:	30 e0       	ldi	r19, 0x00	; 0
    35ce:	04 c0       	rjmp	.+8      	; 0x35d8 <vfprintf+0x27a>
    35d0:	14 fd       	sbrc	r17, 4
    35d2:	16 60       	ori	r17, 0x06	; 6
    35d4:	20 e1       	ldi	r18, 0x10	; 16
    35d6:	32 e0       	ldi	r19, 0x02	; 2
    35d8:	17 ff       	sbrs	r17, 7
    35da:	08 c0       	rjmp	.+16     	; 0x35ec <vfprintf+0x28e>
    35dc:	f5 01       	movw	r30, r10
    35de:	60 81       	ld	r22, Z
    35e0:	71 81       	ldd	r23, Z+1	; 0x01
    35e2:	82 81       	ldd	r24, Z+2	; 0x02
    35e4:	93 81       	ldd	r25, Z+3	; 0x03
    35e6:	44 e0       	ldi	r20, 0x04	; 4
    35e8:	50 e0       	ldi	r21, 0x00	; 0
    35ea:	08 c0       	rjmp	.+16     	; 0x35fc <vfprintf+0x29e>
    35ec:	f5 01       	movw	r30, r10
    35ee:	80 81       	ld	r24, Z
    35f0:	91 81       	ldd	r25, Z+1	; 0x01
    35f2:	bc 01       	movw	r22, r24
    35f4:	80 e0       	ldi	r24, 0x00	; 0
    35f6:	90 e0       	ldi	r25, 0x00	; 0
    35f8:	42 e0       	ldi	r20, 0x02	; 2
    35fa:	50 e0       	ldi	r21, 0x00	; 0
    35fc:	a4 0e       	add	r10, r20
    35fe:	b5 1e       	adc	r11, r21
    3600:	a1 01       	movw	r20, r2
    3602:	0e 94 ce 1b 	call	0x379c	; 0x379c <__ultoa_invert>
    3606:	d8 2e       	mov	r13, r24
    3608:	d2 18       	sub	r13, r2
    360a:	8f e7       	ldi	r24, 0x7F	; 127
    360c:	f8 2e       	mov	r15, r24
    360e:	f1 22       	and	r15, r17
    3610:	f6 fe       	sbrs	r15, 6
    3612:	0b c0       	rjmp	.+22     	; 0x362a <vfprintf+0x2cc>
    3614:	5e ef       	ldi	r21, 0xFE	; 254
    3616:	f5 22       	and	r15, r21
    3618:	d9 14       	cp	r13, r9
    361a:	38 f4       	brcc	.+14     	; 0x362a <vfprintf+0x2cc>
    361c:	f4 fe       	sbrs	r15, 4
    361e:	07 c0       	rjmp	.+14     	; 0x362e <vfprintf+0x2d0>
    3620:	f2 fc       	sbrc	r15, 2
    3622:	05 c0       	rjmp	.+10     	; 0x362e <vfprintf+0x2d0>
    3624:	8f ee       	ldi	r24, 0xEF	; 239
    3626:	f8 22       	and	r15, r24
    3628:	02 c0       	rjmp	.+4      	; 0x362e <vfprintf+0x2d0>
    362a:	1d 2d       	mov	r17, r13
    362c:	01 c0       	rjmp	.+2      	; 0x3630 <vfprintf+0x2d2>
    362e:	19 2d       	mov	r17, r9
    3630:	f4 fe       	sbrs	r15, 4
    3632:	0d c0       	rjmp	.+26     	; 0x364e <vfprintf+0x2f0>
    3634:	fe 01       	movw	r30, r28
    3636:	ed 0d       	add	r30, r13
    3638:	f1 1d       	adc	r31, r1
    363a:	80 81       	ld	r24, Z
    363c:	80 33       	cpi	r24, 0x30	; 48
    363e:	19 f4       	brne	.+6      	; 0x3646 <vfprintf+0x2e8>
    3640:	99 ee       	ldi	r25, 0xE9	; 233
    3642:	f9 22       	and	r15, r25
    3644:	08 c0       	rjmp	.+16     	; 0x3656 <vfprintf+0x2f8>
    3646:	1f 5f       	subi	r17, 0xFF	; 255
    3648:	f2 fe       	sbrs	r15, 2
    364a:	05 c0       	rjmp	.+10     	; 0x3656 <vfprintf+0x2f8>
    364c:	03 c0       	rjmp	.+6      	; 0x3654 <vfprintf+0x2f6>
    364e:	8f 2d       	mov	r24, r15
    3650:	86 78       	andi	r24, 0x86	; 134
    3652:	09 f0       	breq	.+2      	; 0x3656 <vfprintf+0x2f8>
    3654:	1f 5f       	subi	r17, 0xFF	; 255
    3656:	0f 2d       	mov	r16, r15
    3658:	f3 fc       	sbrc	r15, 3
    365a:	14 c0       	rjmp	.+40     	; 0x3684 <vfprintf+0x326>
    365c:	f0 fe       	sbrs	r15, 0
    365e:	0f c0       	rjmp	.+30     	; 0x367e <vfprintf+0x320>
    3660:	1e 15       	cp	r17, r14
    3662:	10 f0       	brcs	.+4      	; 0x3668 <vfprintf+0x30a>
    3664:	9d 2c       	mov	r9, r13
    3666:	0b c0       	rjmp	.+22     	; 0x367e <vfprintf+0x320>
    3668:	9d 2c       	mov	r9, r13
    366a:	9e 0c       	add	r9, r14
    366c:	91 1a       	sub	r9, r17
    366e:	1e 2d       	mov	r17, r14
    3670:	06 c0       	rjmp	.+12     	; 0x367e <vfprintf+0x320>
    3672:	80 e2       	ldi	r24, 0x20	; 32
    3674:	90 e0       	ldi	r25, 0x00	; 0
    3676:	b3 01       	movw	r22, r6
    3678:	0e 94 a2 1b 	call	0x3744	; 0x3744 <fputc>
    367c:	1f 5f       	subi	r17, 0xFF	; 255
    367e:	1e 15       	cp	r17, r14
    3680:	c0 f3       	brcs	.-16     	; 0x3672 <vfprintf+0x314>
    3682:	04 c0       	rjmp	.+8      	; 0x368c <vfprintf+0x32e>
    3684:	1e 15       	cp	r17, r14
    3686:	10 f4       	brcc	.+4      	; 0x368c <vfprintf+0x32e>
    3688:	e1 1a       	sub	r14, r17
    368a:	01 c0       	rjmp	.+2      	; 0x368e <vfprintf+0x330>
    368c:	ee 24       	eor	r14, r14
    368e:	04 ff       	sbrs	r16, 4
    3690:	0f c0       	rjmp	.+30     	; 0x36b0 <vfprintf+0x352>
    3692:	80 e3       	ldi	r24, 0x30	; 48
    3694:	90 e0       	ldi	r25, 0x00	; 0
    3696:	b3 01       	movw	r22, r6
    3698:	0e 94 a2 1b 	call	0x3744	; 0x3744 <fputc>
    369c:	02 ff       	sbrs	r16, 2
    369e:	1d c0       	rjmp	.+58     	; 0x36da <vfprintf+0x37c>
    36a0:	01 fd       	sbrc	r16, 1
    36a2:	03 c0       	rjmp	.+6      	; 0x36aa <vfprintf+0x34c>
    36a4:	88 e7       	ldi	r24, 0x78	; 120
    36a6:	90 e0       	ldi	r25, 0x00	; 0
    36a8:	0e c0       	rjmp	.+28     	; 0x36c6 <vfprintf+0x368>
    36aa:	88 e5       	ldi	r24, 0x58	; 88
    36ac:	90 e0       	ldi	r25, 0x00	; 0
    36ae:	0b c0       	rjmp	.+22     	; 0x36c6 <vfprintf+0x368>
    36b0:	80 2f       	mov	r24, r16
    36b2:	86 78       	andi	r24, 0x86	; 134
    36b4:	91 f0       	breq	.+36     	; 0x36da <vfprintf+0x37c>
    36b6:	01 ff       	sbrs	r16, 1
    36b8:	02 c0       	rjmp	.+4      	; 0x36be <vfprintf+0x360>
    36ba:	8b e2       	ldi	r24, 0x2B	; 43
    36bc:	01 c0       	rjmp	.+2      	; 0x36c0 <vfprintf+0x362>
    36be:	80 e2       	ldi	r24, 0x20	; 32
    36c0:	f7 fc       	sbrc	r15, 7
    36c2:	8d e2       	ldi	r24, 0x2D	; 45
    36c4:	90 e0       	ldi	r25, 0x00	; 0
    36c6:	b3 01       	movw	r22, r6
    36c8:	0e 94 a2 1b 	call	0x3744	; 0x3744 <fputc>
    36cc:	06 c0       	rjmp	.+12     	; 0x36da <vfprintf+0x37c>
    36ce:	80 e3       	ldi	r24, 0x30	; 48
    36d0:	90 e0       	ldi	r25, 0x00	; 0
    36d2:	b3 01       	movw	r22, r6
    36d4:	0e 94 a2 1b 	call	0x3744	; 0x3744 <fputc>
    36d8:	9a 94       	dec	r9
    36da:	d9 14       	cp	r13, r9
    36dc:	c0 f3       	brcs	.-16     	; 0x36ce <vfprintf+0x370>
    36de:	da 94       	dec	r13
    36e0:	f1 01       	movw	r30, r2
    36e2:	ed 0d       	add	r30, r13
    36e4:	f1 1d       	adc	r31, r1
    36e6:	80 81       	ld	r24, Z
    36e8:	90 e0       	ldi	r25, 0x00	; 0
    36ea:	b3 01       	movw	r22, r6
    36ec:	0e 94 a2 1b 	call	0x3744	; 0x3744 <fputc>
    36f0:	dd 20       	and	r13, r13
    36f2:	a9 f7       	brne	.-22     	; 0x36de <vfprintf+0x380>
    36f4:	06 c0       	rjmp	.+12     	; 0x3702 <vfprintf+0x3a4>
    36f6:	80 e2       	ldi	r24, 0x20	; 32
    36f8:	90 e0       	ldi	r25, 0x00	; 0
    36fa:	b3 01       	movw	r22, r6
    36fc:	0e 94 a2 1b 	call	0x3744	; 0x3744 <fputc>
    3700:	ea 94       	dec	r14
    3702:	ee 20       	and	r14, r14
    3704:	c1 f7       	brne	.-16     	; 0x36f6 <vfprintf+0x398>
    3706:	43 ce       	rjmp	.-890    	; 0x338e <vfprintf+0x30>
    3708:	f3 01       	movw	r30, r6
    370a:	66 81       	ldd	r22, Z+6	; 0x06
    370c:	77 81       	ldd	r23, Z+7	; 0x07
    370e:	cb 01       	movw	r24, r22
    3710:	2b 96       	adiw	r28, 0x0b	; 11
    3712:	e2 e1       	ldi	r30, 0x12	; 18
    3714:	0c 94 70 19 	jmp	0x32e0	; 0x32e0 <__epilogue_restores__>

00003718 <strnlen_P>:
    3718:	fc 01       	movw	r30, r24
    371a:	05 90       	lpm	r0, Z+
    371c:	61 50       	subi	r22, 0x01	; 1
    371e:	70 40       	sbci	r23, 0x00	; 0
    3720:	01 10       	cpse	r0, r1
    3722:	d8 f7       	brcc	.-10     	; 0x371a <strnlen_P+0x2>
    3724:	80 95       	com	r24
    3726:	90 95       	com	r25
    3728:	8e 0f       	add	r24, r30
    372a:	9f 1f       	adc	r25, r31
    372c:	08 95       	ret

0000372e <strnlen>:
    372e:	fc 01       	movw	r30, r24
    3730:	61 50       	subi	r22, 0x01	; 1
    3732:	70 40       	sbci	r23, 0x00	; 0
    3734:	01 90       	ld	r0, Z+
    3736:	01 10       	cpse	r0, r1
    3738:	d8 f7       	brcc	.-10     	; 0x3730 <strnlen+0x2>
    373a:	80 95       	com	r24
    373c:	90 95       	com	r25
    373e:	8e 0f       	add	r24, r30
    3740:	9f 1f       	adc	r25, r31
    3742:	08 95       	ret

00003744 <fputc>:
    3744:	0f 93       	push	r16
    3746:	1f 93       	push	r17
    3748:	cf 93       	push	r28
    374a:	df 93       	push	r29
    374c:	8c 01       	movw	r16, r24
    374e:	eb 01       	movw	r28, r22
    3750:	8b 81       	ldd	r24, Y+3	; 0x03
    3752:	81 ff       	sbrs	r24, 1
    3754:	1b c0       	rjmp	.+54     	; 0x378c <fputc+0x48>
    3756:	82 ff       	sbrs	r24, 2
    3758:	0d c0       	rjmp	.+26     	; 0x3774 <fputc+0x30>
    375a:	2e 81       	ldd	r18, Y+6	; 0x06
    375c:	3f 81       	ldd	r19, Y+7	; 0x07
    375e:	8c 81       	ldd	r24, Y+4	; 0x04
    3760:	9d 81       	ldd	r25, Y+5	; 0x05
    3762:	28 17       	cp	r18, r24
    3764:	39 07       	cpc	r19, r25
    3766:	64 f4       	brge	.+24     	; 0x3780 <fputc+0x3c>
    3768:	e8 81       	ld	r30, Y
    376a:	f9 81       	ldd	r31, Y+1	; 0x01
    376c:	01 93       	st	Z+, r16
    376e:	f9 83       	std	Y+1, r31	; 0x01
    3770:	e8 83       	st	Y, r30
    3772:	06 c0       	rjmp	.+12     	; 0x3780 <fputc+0x3c>
    3774:	e8 85       	ldd	r30, Y+8	; 0x08
    3776:	f9 85       	ldd	r31, Y+9	; 0x09
    3778:	80 2f       	mov	r24, r16
    377a:	09 95       	icall
    377c:	89 2b       	or	r24, r25
    377e:	31 f4       	brne	.+12     	; 0x378c <fputc+0x48>
    3780:	8e 81       	ldd	r24, Y+6	; 0x06
    3782:	9f 81       	ldd	r25, Y+7	; 0x07
    3784:	01 96       	adiw	r24, 0x01	; 1
    3786:	9f 83       	std	Y+7, r25	; 0x07
    3788:	8e 83       	std	Y+6, r24	; 0x06
    378a:	02 c0       	rjmp	.+4      	; 0x3790 <fputc+0x4c>
    378c:	0f ef       	ldi	r16, 0xFF	; 255
    378e:	1f ef       	ldi	r17, 0xFF	; 255
    3790:	c8 01       	movw	r24, r16
    3792:	df 91       	pop	r29
    3794:	cf 91       	pop	r28
    3796:	1f 91       	pop	r17
    3798:	0f 91       	pop	r16
    379a:	08 95       	ret

0000379c <__ultoa_invert>:
    379c:	fa 01       	movw	r30, r20
    379e:	aa 27       	eor	r26, r26
    37a0:	28 30       	cpi	r18, 0x08	; 8
    37a2:	51 f1       	breq	.+84     	; 0x37f8 <__ultoa_invert+0x5c>
    37a4:	20 31       	cpi	r18, 0x10	; 16
    37a6:	81 f1       	breq	.+96     	; 0x3808 <__ultoa_invert+0x6c>
    37a8:	e8 94       	clt
    37aa:	6f 93       	push	r22
    37ac:	6e 7f       	andi	r22, 0xFE	; 254
    37ae:	6e 5f       	subi	r22, 0xFE	; 254
    37b0:	7f 4f       	sbci	r23, 0xFF	; 255
    37b2:	8f 4f       	sbci	r24, 0xFF	; 255
    37b4:	9f 4f       	sbci	r25, 0xFF	; 255
    37b6:	af 4f       	sbci	r26, 0xFF	; 255
    37b8:	b1 e0       	ldi	r27, 0x01	; 1
    37ba:	3e d0       	rcall	.+124    	; 0x3838 <__ultoa_invert+0x9c>
    37bc:	b4 e0       	ldi	r27, 0x04	; 4
    37be:	3c d0       	rcall	.+120    	; 0x3838 <__ultoa_invert+0x9c>
    37c0:	67 0f       	add	r22, r23
    37c2:	78 1f       	adc	r23, r24
    37c4:	89 1f       	adc	r24, r25
    37c6:	9a 1f       	adc	r25, r26
    37c8:	a1 1d       	adc	r26, r1
    37ca:	68 0f       	add	r22, r24
    37cc:	79 1f       	adc	r23, r25
    37ce:	8a 1f       	adc	r24, r26
    37d0:	91 1d       	adc	r25, r1
    37d2:	a1 1d       	adc	r26, r1
    37d4:	6a 0f       	add	r22, r26
    37d6:	71 1d       	adc	r23, r1
    37d8:	81 1d       	adc	r24, r1
    37da:	91 1d       	adc	r25, r1
    37dc:	a1 1d       	adc	r26, r1
    37de:	20 d0       	rcall	.+64     	; 0x3820 <__ultoa_invert+0x84>
    37e0:	09 f4       	brne	.+2      	; 0x37e4 <__ultoa_invert+0x48>
    37e2:	68 94       	set
    37e4:	3f 91       	pop	r19
    37e6:	2a e0       	ldi	r18, 0x0A	; 10
    37e8:	26 9f       	mul	r18, r22
    37ea:	11 24       	eor	r1, r1
    37ec:	30 19       	sub	r19, r0
    37ee:	30 5d       	subi	r19, 0xD0	; 208
    37f0:	31 93       	st	Z+, r19
    37f2:	de f6       	brtc	.-74     	; 0x37aa <__ultoa_invert+0xe>
    37f4:	cf 01       	movw	r24, r30
    37f6:	08 95       	ret
    37f8:	46 2f       	mov	r20, r22
    37fa:	47 70       	andi	r20, 0x07	; 7
    37fc:	40 5d       	subi	r20, 0xD0	; 208
    37fe:	41 93       	st	Z+, r20
    3800:	b3 e0       	ldi	r27, 0x03	; 3
    3802:	0f d0       	rcall	.+30     	; 0x3822 <__ultoa_invert+0x86>
    3804:	c9 f7       	brne	.-14     	; 0x37f8 <__ultoa_invert+0x5c>
    3806:	f6 cf       	rjmp	.-20     	; 0x37f4 <__ultoa_invert+0x58>
    3808:	46 2f       	mov	r20, r22
    380a:	4f 70       	andi	r20, 0x0F	; 15
    380c:	40 5d       	subi	r20, 0xD0	; 208
    380e:	4a 33       	cpi	r20, 0x3A	; 58
    3810:	18 f0       	brcs	.+6      	; 0x3818 <__ultoa_invert+0x7c>
    3812:	49 5d       	subi	r20, 0xD9	; 217
    3814:	31 fd       	sbrc	r19, 1
    3816:	40 52       	subi	r20, 0x20	; 32
    3818:	41 93       	st	Z+, r20
    381a:	02 d0       	rcall	.+4      	; 0x3820 <__ultoa_invert+0x84>
    381c:	a9 f7       	brne	.-22     	; 0x3808 <__ultoa_invert+0x6c>
    381e:	ea cf       	rjmp	.-44     	; 0x37f4 <__ultoa_invert+0x58>
    3820:	b4 e0       	ldi	r27, 0x04	; 4
    3822:	a6 95       	lsr	r26
    3824:	97 95       	ror	r25
    3826:	87 95       	ror	r24
    3828:	77 95       	ror	r23
    382a:	67 95       	ror	r22
    382c:	ba 95       	dec	r27
    382e:	c9 f7       	brne	.-14     	; 0x3822 <__ultoa_invert+0x86>
    3830:	00 97       	sbiw	r24, 0x00	; 0
    3832:	61 05       	cpc	r22, r1
    3834:	71 05       	cpc	r23, r1
    3836:	08 95       	ret
    3838:	9b 01       	movw	r18, r22
    383a:	ac 01       	movw	r20, r24
    383c:	0a 2e       	mov	r0, r26
    383e:	06 94       	lsr	r0
    3840:	57 95       	ror	r21
    3842:	47 95       	ror	r20
    3844:	37 95       	ror	r19
    3846:	27 95       	ror	r18
    3848:	ba 95       	dec	r27
    384a:	c9 f7       	brne	.-14     	; 0x383e <__ultoa_invert+0xa2>
    384c:	62 0f       	add	r22, r18
    384e:	73 1f       	adc	r23, r19
    3850:	84 1f       	adc	r24, r20
    3852:	95 1f       	adc	r25, r21
    3854:	a0 1d       	adc	r26, r0
    3856:	08 95       	ret

00003858 <_exit>:
    3858:	f8 94       	cli

0000385a <__stop_program>:
    385a:	ff cf       	rjmp	.-2      	; 0x385a <__stop_program>
